GAS LISTING C:\users\mohammadreza\Temp/cc3UF9Fc.s 			page 1


   1               		.file	"adc.c"
   2               	__SREG__ = 0x3f
   3               	__SP_H__ = 0x3e
   4               	__SP_L__ = 0x3d
   5               	__CCP__  = 0x34
   6               	__tmp_reg__ = 0
   7               	__zero_reg__ = 1
   8               		.section	.debug_abbrev,"",@progbits
   9               	.Ldebug_abbrev0:
  10               		.section	.debug_info,"",@progbits
  11               	.Ldebug_info0:
  12               		.section	.debug_line,"",@progbits
  13               	.Ldebug_line0:
  14               		.text
  15               	.Ltext0:
  16               	.global	f_ConfigADC
  17               		.type	f_ConfigADC, @function
  18               	f_ConfigADC:
  19               	.LFB2:
  20               	.LM1:
  21 0000 DF93      		push r29
  22 0002 CF93      		push r28
  23 0004 00D0      		rcall .
  24 0006 00D0      		rcall .
  25 0008 CDB7      		in r28,__SP_L__
  26 000a DEB7      		in r29,__SP_H__
  27               	/* prologue: function */
  28               	/* frame size = 4 */
  29               	.LM2:
  30 000c 17B8      		out 39-32,__zero_reg__
  31               	.LM3:
  32 000e 8DE8      		ldi r24,lo8(-115)
  33 0010 86B9      		out 38-32,r24
  34               	.LM4:
  35 0012 24B1      		in r18,36-32
  36 0014 45B1      		in r20,37-32
  37 0016 942F      		mov r25,r20
  38 0018 80E0      		ldi r24,lo8(0)
  39 001a 30E0      		ldi r19,lo8(0)
  40 001c 822B      		or r24,r18
  41 001e 932B      		or r25,r19
  42 0020 9A83      		std Y+2,r25
  43 0022 8983      		std Y+1,r24
  44               	.LVL0:
  45               	.LM5:
  46 0024 1C82      		std Y+4,__zero_reg__
  47 0026 1B82      		std Y+3,__zero_reg__
  48               	.LVL1:
  49 0028 8B81      		ldd r24,Y+3
  50 002a 9C81      		ldd r25,Y+4
  51 002c 0897      		sbiw r24,8
  52 002e 00F4      		brsh .L4
  53 0030 2FEF      		ldi r18,lo8(255)
  54 0032 30E0      		ldi r19,hi8(255)
  55               	.L5:
  56 0034 EB81      		ldd r30,Y+3
  57 0036 FC81      		ldd r31,Y+4
GAS LISTING C:\users\mohammadreza\Temp/cc3UF9Fc.s 			page 2


  58 0038 EE0F      		lsl r30
  59 003a FF1F      		rol r31
  60 003c E050      		subi r30,lo8(-(v_Chan))
  61 003e F040      		sbci r31,hi8(-(v_Chan))
  62 0040 3183      		std Z+1,r19
  63 0042 2083      		st Z,r18
  64 0044 8B81      		ldd r24,Y+3
  65 0046 9C81      		ldd r25,Y+4
  66 0048 0196      		adiw r24,1
  67 004a 9C83      		std Y+4,r25
  68 004c 8B83      		std Y+3,r24
  69               	.LVL2:
  70 004e 8B81      		ldd r24,Y+3
  71 0050 9C81      		ldd r25,Y+4
  72 0052 0897      		sbiw r24,8
  73 0054 00F0      		brlo .L5
  74               	.L4:
  75               	/* epilogue start */
  76               	.LM6:
  77 0056 0F90      		pop __tmp_reg__
  78 0058 0F90      		pop __tmp_reg__
  79 005a 0F90      		pop __tmp_reg__
  80 005c 0F90      		pop __tmp_reg__
  81 005e CF91      		pop r28
  82 0060 DF91      		pop r29
  83 0062 0895      		ret
  84               	.LFE2:
  85               		.size	f_ConfigADC, .-f_ConfigADC
  86               	.global	f_StartADC
  87               		.type	f_StartADC, @function
  88               	f_StartADC:
  89               	.LFB3:
  90               	.LM7:
  91               	/* prologue: function */
  92               	/* frame size = 0 */
  93               	.LM8:
  94 0064 8091 0000 		lds r24,v_SysStat
  95 0068 877F      		andi r24,lo8(-9)
  96 006a 8093 0000 		sts v_SysStat,r24
  97               	.LM9:
  98 006e 369A      		sbi 38-32,6
  99               	/* epilogue start */
 100               	.LM10:
 101 0070 0895      		ret
 102               	.LFE3:
 103               		.size	f_StartADC, .-f_StartADC
 104               	.global	f_SysADC
 105               		.type	f_SysADC, @function
 106               	f_SysADC:
 107               	.LFB4:
 108               	.LM11:
 109               	/* prologue: function */
 110               	/* frame size = 0 */
 111               	.LM12:
 112 0072 8091 0000 		lds r24,v_SysStat
 113 0076 83FF      		sbrs r24,3
 114 0078 00C0      		rjmp .L12
GAS LISTING C:\users\mohammadreza\Temp/cc3UF9Fc.s 			page 3


 115               	.LBB4:
 116               	.LBB5:
 117               	.LM13:
 118 007a 877F      		andi r24,lo8(-9)
 119 007c 8093 0000 		sts v_SysStat,r24
 120               	.LM14:
 121 0080 369A      		sbi 38-32,6
 122               	.L12:
 123 0082 0895      		ret
 124               	.LBE5:
 125               	.LBE4:
 126               	.LFE4:
 127               		.size	f_SysADC, .-f_SysADC
 128               	.global	__vector_14
 129               		.type	__vector_14, @function
 130               	__vector_14:
 131               	.LFB5:
 132               	.LM15:
 133 0084 1F92      		push __zero_reg__
 134 0086 0F92      		push r0
 135 0088 0FB6      		in r0,__SREG__
 136 008a 0F92      		push r0
 137 008c 1124      		clr __zero_reg__
 138 008e 2F93      		push r18
 139 0090 3F93      		push r19
 140 0092 4F93      		push r20
 141 0094 8F93      		push r24
 142 0096 9F93      		push r25
 143 0098 EF93      		push r30
 144 009a FF93      		push r31
 145               	/* prologue: Signal */
 146               	/* frame size = 0 */
 147               	.LM16:
 148 009c E7B1      		in r30,39-32
 149               	.LVL3:
 150               	.LM17:
 151 009e 24B1      		in r18,36-32
 152 00a0 45B1      		in r20,37-32
 153 00a2 942F      		mov r25,r20
 154 00a4 80E0      		ldi r24,lo8(0)
 155 00a6 30E0      		ldi r19,lo8(0)
 156 00a8 822B      		or r24,r18
 157 00aa 932B      		or r25,r19
 158               	.LM18:
 159 00ac E07F      		andi r30,lo8(-16)
 160 00ae F0E0      		ldi r31,lo8(0)
 161 00b0 EE0F      		lsl r30
 162 00b2 FF1F      		rol r31
 163               	.LVL4:
 164 00b4 E050      		subi r30,lo8(-(v_Chan))
 165 00b6 F040      		sbci r31,hi8(-(v_Chan))
 166 00b8 9183      		std Z+1,r25
 167 00ba 8083      		st Z,r24
 168               	.LM19:
 169 00bc 97B1      		in r25,39-32
 170               	.LVL5:
 171               	.LM20:
GAS LISTING C:\users\mohammadreza\Temp/cc3UF9Fc.s 			page 4


 172 00be 892F      		mov r24,r25
 173 00c0 8770      		andi r24,lo8(7)
 174 00c2 8730      		cpi r24,lo8(7)
 175 00c4 01F0      		breq .L14
 176 00c6 892F      		mov r24,r25
 177 00c8 8F5F      		subi r24,lo8(-(1))
 178               	.LVL6:
 179               	.L15:
 180               	.LM21:
 181 00ca 87B9      		out 39-32,r24
 182               	/* epilogue start */
 183               	.LM22:
 184 00cc FF91      		pop r31
 185 00ce EF91      		pop r30
 186 00d0 9F91      		pop r25
 187 00d2 8F91      		pop r24
 188               	.LVL7:
 189 00d4 4F91      		pop r20
 190 00d6 3F91      		pop r19
 191 00d8 2F91      		pop r18
 192 00da 0F90      		pop r0
 193 00dc 0FBE      		out __SREG__,r0
 194 00de 0F90      		pop r0
 195 00e0 1F90      		pop __zero_reg__
 196 00e2 1895      		reti
 197               	.LVL8:
 198               	.L14:
 199               	.LM23:
 200 00e4 892F      		mov r24,r25
 201 00e6 887F      		andi r24,lo8(-8)
 202               	.LVL9:
 203 00e8 00C0      		rjmp .L15
 204               	.LFE5:
 205               		.size	__vector_14, .-__vector_14
 206               		.comm v_Chan,16,1
 207               		.section	.debug_frame,"",@progbits
 208               	.Lframe0:
 209 0000 0C00 0000 		.long	.LECIE0-.LSCIE0
 210               	.LSCIE0:
 211 0004 FFFF FFFF 		.long	0xffffffff
 212 0008 01        		.byte	0x1
 213 0009 00        		.string	""
 214 000a 01        		.uleb128 0x1
 215 000b 7F        		.sleb128 -1
 216 000c 24        		.byte	0x24
 217 000d 0C        		.byte	0xc
 218 000e 20        		.uleb128 0x20
 219 000f 00        		.uleb128 0x0
 220               		.p2align	2
 221               	.LECIE0:
 222               	.LSFDE0:
 223 0010 0C00 0000 		.long	.LEFDE0-.LASFDE0
 224               	.LASFDE0:
 225 0014 0000 0000 		.long	.Lframe0
 226 0018 0000 0000 		.long	.LFB2
 227 001c 6400 0000 		.long	.LFE2-.LFB2
 228               		.p2align	2
GAS LISTING C:\users\mohammadreza\Temp/cc3UF9Fc.s 			page 5


 229               	.LEFDE0:
 230               	.LSFDE2:
 231 0020 0C00 0000 		.long	.LEFDE2-.LASFDE2
 232               	.LASFDE2:
 233 0024 0000 0000 		.long	.Lframe0
 234 0028 0000 0000 		.long	.LFB3
 235 002c 0E00 0000 		.long	.LFE3-.LFB3
 236               		.p2align	2
 237               	.LEFDE2:
 238               	.LSFDE4:
 239 0030 0C00 0000 		.long	.LEFDE4-.LASFDE4
 240               	.LASFDE4:
 241 0034 0000 0000 		.long	.Lframe0
 242 0038 0000 0000 		.long	.LFB4
 243 003c 1200 0000 		.long	.LFE4-.LFB4
 244               		.p2align	2
 245               	.LEFDE4:
 246               	.LSFDE6:
 247 0040 0C00 0000 		.long	.LEFDE6-.LASFDE6
 248               	.LASFDE6:
 249 0044 0000 0000 		.long	.Lframe0
 250 0048 0000 0000 		.long	.LFB5
 251 004c 6600 0000 		.long	.LFE5-.LFB5
 252               		.p2align	2
 253               	.LEFDE6:
 254               		.text
 255               	.Letext0:
 256               		.section	.debug_loc,"",@progbits
 257               	.Ldebug_loc0:
 258               	.LLST4:
 259 0000 9E00 0000 		.long	.LVL3-.Ltext0
 260 0004 B400 0000 		.long	.LVL4-.Ltext0
 261 0008 0100      		.word	0x1
 262 000a 6E        		.byte	0x6e
 263 000b BE00 0000 		.long	.LVL5-.Ltext0
 264 000f CA00 0000 		.long	.LVL6-.Ltext0
 265 0013 0100      		.word	0x1
 266 0015 69        		.byte	0x69
 267 0016 CA00 0000 		.long	.LVL6-.Ltext0
 268 001a D400 0000 		.long	.LVL7-.Ltext0
 269 001e 0100      		.word	0x1
 270 0020 68        		.byte	0x68
 271 0021 E400 0000 		.long	.LVL8-.Ltext0
 272 0025 E800 0000 		.long	.LVL9-.Ltext0
 273 0029 0100      		.word	0x1
 274 002b 69        		.byte	0x69
 275 002c E800 0000 		.long	.LVL9-.Ltext0
 276 0030 EA00 0000 		.long	.LFE5-.Ltext0
 277 0034 0100      		.word	0x1
 278 0036 68        		.byte	0x68
 279 0037 0000 0000 		.long	0x0
 280 003b 0000 0000 		.long	0x0
 281               		.section	.debug_info
 282 0000 6901 0000 		.long	0x169
 283 0004 0200      		.word	0x2
 284 0006 0000 0000 		.long	.Ldebug_abbrev0
 285 000a 04        		.byte	0x4
GAS LISTING C:\users\mohammadreza\Temp/cc3UF9Fc.s 			page 6


 286 000b 01        		.uleb128 0x1
 287 000c 0000 0000 		.long	.LASF19
 288 0010 01        		.byte	0x1
 289 0011 0000 0000 		.long	.LASF20
 290 0015 0000 0000 		.long	.LASF21
 291 0019 0000 0000 		.long	.Ltext0
 292 001d 0000 0000 		.long	.Letext0
 293 0021 0000 0000 		.long	.Ldebug_line0
 294 0025 02        		.uleb128 0x2
 295 0026 01        		.byte	0x1
 296 0027 06        		.byte	0x6
 297 0028 0000 0000 		.long	.LASF0
 298 002c 02        		.uleb128 0x2
 299 002d 01        		.byte	0x1
 300 002e 08        		.byte	0x8
 301 002f 0000 0000 		.long	.LASF1
 302 0033 03        		.uleb128 0x3
 303 0034 02        		.byte	0x2
 304 0035 05        		.byte	0x5
 305 0036 696E 7400 		.string	"int"
 306 003a 02        		.uleb128 0x2
 307 003b 02        		.byte	0x2
 308 003c 07        		.byte	0x7
 309 003d 0000 0000 		.long	.LASF2
 310 0041 02        		.uleb128 0x2
 311 0042 04        		.byte	0x4
 312 0043 05        		.byte	0x5
 313 0044 0000 0000 		.long	.LASF3
 314 0048 02        		.uleb128 0x2
 315 0049 04        		.byte	0x4
 316 004a 07        		.byte	0x7
 317 004b 0000 0000 		.long	.LASF4
 318 004f 02        		.uleb128 0x2
 319 0050 08        		.byte	0x8
 320 0051 05        		.byte	0x5
 321 0052 0000 0000 		.long	.LASF5
 322 0056 02        		.uleb128 0x2
 323 0057 08        		.byte	0x8
 324 0058 07        		.byte	0x7
 325 0059 0000 0000 		.long	.LASF6
 326 005d 02        		.uleb128 0x2
 327 005e 01        		.byte	0x1
 328 005f 06        		.byte	0x6
 329 0060 0000 0000 		.long	.LASF7
 330 0064 02        		.uleb128 0x2
 331 0065 02        		.byte	0x2
 332 0066 07        		.byte	0x7
 333 0067 0000 0000 		.long	.LASF8
 334 006b 02        		.uleb128 0x2
 335 006c 02        		.byte	0x2
 336 006d 05        		.byte	0x5
 337 006e 0000 0000 		.long	.LASF9
 338 0072 04        		.uleb128 0x4
 339 0073 0000 0000 		.long	.LASF10
 340 0077 02        		.byte	0x2
 341 0078 0D        		.byte	0xd
 342 0079 2C00 0000 		.long	0x2c
GAS LISTING C:\users\mohammadreza\Temp/cc3UF9Fc.s 			page 7


 343 007d 04        		.uleb128 0x4
 344 007e 0000 0000 		.long	.LASF11
 345 0082 02        		.byte	0x2
 346 0083 0F        		.byte	0xf
 347 0084 6400 0000 		.long	0x64
 348 0088 05        		.uleb128 0x5
 349 0089 01        		.byte	0x1
 350 008a 0000 0000 		.long	.LASF22
 351 008e 01        		.byte	0x1
 352 008f 4D        		.byte	0x4d
 353 0090 01        		.byte	0x1
 354 0091 00        		.byte	0x0
 355 0092 06        		.uleb128 0x6
 356 0093 01        		.byte	0x1
 357 0094 0000 0000 		.long	.LASF13
 358 0098 01        		.byte	0x1
 359 0099 2B        		.byte	0x2b
 360 009a 01        		.byte	0x1
 361 009b 0000 0000 		.long	.LFB2
 362 009f 0000 0000 		.long	.LFE2
 363 00a3 02        		.byte	0x2
 364 00a4 90        		.byte	0x90
 365 00a5 20        		.uleb128 0x20
 366 00a6 C500 0000 		.long	0xc5
 367 00aa 07        		.uleb128 0x7
 368 00ab 0000 0000 		.long	.LASF12
 369 00af 01        		.byte	0x1
 370 00b0 2C        		.byte	0x2c
 371 00b1 C500 0000 		.long	0xc5
 372 00b5 02        		.byte	0x2
 373 00b6 8C        		.byte	0x8c
 374 00b7 01        		.sleb128 1
 375 00b8 08        		.uleb128 0x8
 376 00b9 6900      		.string	"i"
 377 00bb 01        		.byte	0x1
 378 00bc 2C        		.byte	0x2c
 379 00bd C500 0000 		.long	0xc5
 380 00c1 02        		.byte	0x2
 381 00c2 8C        		.byte	0x8c
 382 00c3 03        		.sleb128 3
 383 00c4 00        		.byte	0x0
 384 00c5 09        		.uleb128 0x9
 385 00c6 7D00 0000 		.long	0x7d
 386 00ca 0A        		.uleb128 0xa
 387 00cb 8800 0000 		.long	0x88
 388 00cf 0000 0000 		.long	.LFB3
 389 00d3 0000 0000 		.long	.LFE3
 390 00d7 02        		.byte	0x2
 391 00d8 90        		.byte	0x90
 392 00d9 20        		.uleb128 0x20
 393 00da 06        		.uleb128 0x6
 394 00db 01        		.byte	0x1
 395 00dc 0000 0000 		.long	.LASF14
 396 00e0 01        		.byte	0x1
 397 00e1 59        		.byte	0x59
 398 00e2 01        		.byte	0x1
 399 00e3 0000 0000 		.long	.LFB4
GAS LISTING C:\users\mohammadreza\Temp/cc3UF9Fc.s 			page 8


 400 00e7 0000 0000 		.long	.LFE4
 401 00eb 02        		.byte	0x2
 402 00ec 90        		.byte	0x90
 403 00ed 20        		.uleb128 0x20
 404 00ee 0201 0000 		.long	0x102
 405 00f2 0B        		.uleb128 0xb
 406 00f3 8800 0000 		.long	0x88
 407 00f7 0000 0000 		.long	.LBB4
 408 00fb 0000 0000 		.long	.LBE4
 409 00ff 01        		.byte	0x1
 410 0100 5C        		.byte	0x5c
 411 0101 00        		.byte	0x0
 412 0102 06        		.uleb128 0x6
 413 0103 01        		.byte	0x1
 414 0104 0000 0000 		.long	.LASF15
 415 0108 01        		.byte	0x1
 416 0109 69        		.byte	0x69
 417 010a 01        		.byte	0x1
 418 010b 0000 0000 		.long	.LFB5
 419 010f 0000 0000 		.long	.LFE5
 420 0113 02        		.byte	0x2
 421 0114 90        		.byte	0x90
 422 0115 20        		.uleb128 0x20
 423 0116 3501 0000 		.long	0x135
 424 011a 0C        		.uleb128 0xc
 425 011b 0000 0000 		.long	.LASF16
 426 011f 01        		.byte	0x1
 427 0120 6A        		.byte	0x6a
 428 0121 7200 0000 		.long	0x72
 429 0125 0000 0000 		.long	.LLST4
 430 0129 0D        		.uleb128 0xd
 431 012a 0000 0000 		.long	.LASF23
 432 012e 01        		.byte	0x1
 433 012f 6B        		.byte	0x6b
 434 0130 7D00 0000 		.long	0x7d
 435 0134 00        		.byte	0x0
 436 0135 0E        		.uleb128 0xe
 437 0136 0000 0000 		.long	.LASF17
 438 013a 01        		.byte	0x1
 439 013b 1D        		.byte	0x1d
 440 013c 7200 0000 		.long	0x72
 441 0140 01        		.byte	0x1
 442 0141 01        		.byte	0x1
 443 0142 0F        		.uleb128 0xf
 444 0143 7D00 0000 		.long	0x7d
 445 0147 5201 0000 		.long	0x152
 446 014b 10        		.uleb128 0x10
 447 014c 5201 0000 		.long	0x152
 448 0150 07        		.byte	0x7
 449 0151 00        		.byte	0x0
 450 0152 11        		.uleb128 0x11
 451 0153 02        		.byte	0x2
 452 0154 07        		.byte	0x7
 453 0155 12        		.uleb128 0x12
 454 0156 0000 0000 		.long	.LASF18
 455 015a 01        		.byte	0x1
 456 015b 28        		.byte	0x28
GAS LISTING C:\users\mohammadreza\Temp/cc3UF9Fc.s 			page 9


 457 015c 6701 0000 		.long	0x167
 458 0160 01        		.byte	0x1
 459 0161 05        		.byte	0x5
 460 0162 03        		.byte	0x3
 461 0163 0000 0000 		.long	v_Chan
 462 0167 09        		.uleb128 0x9
 463 0168 4201 0000 		.long	0x142
 464 016c 00        		.byte	0x0
 465               		.section	.debug_abbrev
 466 0000 01        		.uleb128 0x1
 467 0001 11        		.uleb128 0x11
 468 0002 01        		.byte	0x1
 469 0003 25        		.uleb128 0x25
 470 0004 0E        		.uleb128 0xe
 471 0005 13        		.uleb128 0x13
 472 0006 0B        		.uleb128 0xb
 473 0007 03        		.uleb128 0x3
 474 0008 0E        		.uleb128 0xe
 475 0009 1B        		.uleb128 0x1b
 476 000a 0E        		.uleb128 0xe
 477 000b 11        		.uleb128 0x11
 478 000c 01        		.uleb128 0x1
 479 000d 12        		.uleb128 0x12
 480 000e 01        		.uleb128 0x1
 481 000f 10        		.uleb128 0x10
 482 0010 06        		.uleb128 0x6
 483 0011 00        		.byte	0x0
 484 0012 00        		.byte	0x0
 485 0013 02        		.uleb128 0x2
 486 0014 24        		.uleb128 0x24
 487 0015 00        		.byte	0x0
 488 0016 0B        		.uleb128 0xb
 489 0017 0B        		.uleb128 0xb
 490 0018 3E        		.uleb128 0x3e
 491 0019 0B        		.uleb128 0xb
 492 001a 03        		.uleb128 0x3
 493 001b 0E        		.uleb128 0xe
 494 001c 00        		.byte	0x0
 495 001d 00        		.byte	0x0
 496 001e 03        		.uleb128 0x3
 497 001f 24        		.uleb128 0x24
 498 0020 00        		.byte	0x0
 499 0021 0B        		.uleb128 0xb
 500 0022 0B        		.uleb128 0xb
 501 0023 3E        		.uleb128 0x3e
 502 0024 0B        		.uleb128 0xb
 503 0025 03        		.uleb128 0x3
 504 0026 08        		.uleb128 0x8
 505 0027 00        		.byte	0x0
 506 0028 00        		.byte	0x0
 507 0029 04        		.uleb128 0x4
 508 002a 16        		.uleb128 0x16
 509 002b 00        		.byte	0x0
 510 002c 03        		.uleb128 0x3
 511 002d 0E        		.uleb128 0xe
 512 002e 3A        		.uleb128 0x3a
 513 002f 0B        		.uleb128 0xb
GAS LISTING C:\users\mohammadreza\Temp/cc3UF9Fc.s 			page 10


 514 0030 3B        		.uleb128 0x3b
 515 0031 0B        		.uleb128 0xb
 516 0032 49        		.uleb128 0x49
 517 0033 13        		.uleb128 0x13
 518 0034 00        		.byte	0x0
 519 0035 00        		.byte	0x0
 520 0036 05        		.uleb128 0x5
 521 0037 2E        		.uleb128 0x2e
 522 0038 00        		.byte	0x0
 523 0039 3F        		.uleb128 0x3f
 524 003a 0C        		.uleb128 0xc
 525 003b 03        		.uleb128 0x3
 526 003c 0E        		.uleb128 0xe
 527 003d 3A        		.uleb128 0x3a
 528 003e 0B        		.uleb128 0xb
 529 003f 3B        		.uleb128 0x3b
 530 0040 0B        		.uleb128 0xb
 531 0041 27        		.uleb128 0x27
 532 0042 0C        		.uleb128 0xc
 533 0043 20        		.uleb128 0x20
 534 0044 0B        		.uleb128 0xb
 535 0045 00        		.byte	0x0
 536 0046 00        		.byte	0x0
 537 0047 06        		.uleb128 0x6
 538 0048 2E        		.uleb128 0x2e
 539 0049 01        		.byte	0x1
 540 004a 3F        		.uleb128 0x3f
 541 004b 0C        		.uleb128 0xc
 542 004c 03        		.uleb128 0x3
 543 004d 0E        		.uleb128 0xe
 544 004e 3A        		.uleb128 0x3a
 545 004f 0B        		.uleb128 0xb
 546 0050 3B        		.uleb128 0x3b
 547 0051 0B        		.uleb128 0xb
 548 0052 27        		.uleb128 0x27
 549 0053 0C        		.uleb128 0xc
 550 0054 11        		.uleb128 0x11
 551 0055 01        		.uleb128 0x1
 552 0056 12        		.uleb128 0x12
 553 0057 01        		.uleb128 0x1
 554 0058 40        		.uleb128 0x40
 555 0059 0A        		.uleb128 0xa
 556 005a 01        		.uleb128 0x1
 557 005b 13        		.uleb128 0x13
 558 005c 00        		.byte	0x0
 559 005d 00        		.byte	0x0
 560 005e 07        		.uleb128 0x7
 561 005f 34        		.uleb128 0x34
 562 0060 00        		.byte	0x0
 563 0061 03        		.uleb128 0x3
 564 0062 0E        		.uleb128 0xe
 565 0063 3A        		.uleb128 0x3a
 566 0064 0B        		.uleb128 0xb
 567 0065 3B        		.uleb128 0x3b
 568 0066 0B        		.uleb128 0xb
 569 0067 49        		.uleb128 0x49
 570 0068 13        		.uleb128 0x13
GAS LISTING C:\users\mohammadreza\Temp/cc3UF9Fc.s 			page 11


 571 0069 02        		.uleb128 0x2
 572 006a 0A        		.uleb128 0xa
 573 006b 00        		.byte	0x0
 574 006c 00        		.byte	0x0
 575 006d 08        		.uleb128 0x8
 576 006e 34        		.uleb128 0x34
 577 006f 00        		.byte	0x0
 578 0070 03        		.uleb128 0x3
 579 0071 08        		.uleb128 0x8
 580 0072 3A        		.uleb128 0x3a
 581 0073 0B        		.uleb128 0xb
 582 0074 3B        		.uleb128 0x3b
 583 0075 0B        		.uleb128 0xb
 584 0076 49        		.uleb128 0x49
 585 0077 13        		.uleb128 0x13
 586 0078 02        		.uleb128 0x2
 587 0079 0A        		.uleb128 0xa
 588 007a 00        		.byte	0x0
 589 007b 00        		.byte	0x0
 590 007c 09        		.uleb128 0x9
 591 007d 35        		.uleb128 0x35
 592 007e 00        		.byte	0x0
 593 007f 49        		.uleb128 0x49
 594 0080 13        		.uleb128 0x13
 595 0081 00        		.byte	0x0
 596 0082 00        		.byte	0x0
 597 0083 0A        		.uleb128 0xa
 598 0084 2E        		.uleb128 0x2e
 599 0085 00        		.byte	0x0
 600 0086 31        		.uleb128 0x31
 601 0087 13        		.uleb128 0x13
 602 0088 11        		.uleb128 0x11
 603 0089 01        		.uleb128 0x1
 604 008a 12        		.uleb128 0x12
 605 008b 01        		.uleb128 0x1
 606 008c 40        		.uleb128 0x40
 607 008d 0A        		.uleb128 0xa
 608 008e 00        		.byte	0x0
 609 008f 00        		.byte	0x0
 610 0090 0B        		.uleb128 0xb
 611 0091 1D        		.uleb128 0x1d
 612 0092 00        		.byte	0x0
 613 0093 31        		.uleb128 0x31
 614 0094 13        		.uleb128 0x13
 615 0095 11        		.uleb128 0x11
 616 0096 01        		.uleb128 0x1
 617 0097 12        		.uleb128 0x12
 618 0098 01        		.uleb128 0x1
 619 0099 58        		.uleb128 0x58
 620 009a 0B        		.uleb128 0xb
 621 009b 59        		.uleb128 0x59
 622 009c 0B        		.uleb128 0xb
 623 009d 00        		.byte	0x0
 624 009e 00        		.byte	0x0
 625 009f 0C        		.uleb128 0xc
 626 00a0 34        		.uleb128 0x34
 627 00a1 00        		.byte	0x0
GAS LISTING C:\users\mohammadreza\Temp/cc3UF9Fc.s 			page 12


 628 00a2 03        		.uleb128 0x3
 629 00a3 0E        		.uleb128 0xe
 630 00a4 3A        		.uleb128 0x3a
 631 00a5 0B        		.uleb128 0xb
 632 00a6 3B        		.uleb128 0x3b
 633 00a7 0B        		.uleb128 0xb
 634 00a8 49        		.uleb128 0x49
 635 00a9 13        		.uleb128 0x13
 636 00aa 02        		.uleb128 0x2
 637 00ab 06        		.uleb128 0x6
 638 00ac 00        		.byte	0x0
 639 00ad 00        		.byte	0x0
 640 00ae 0D        		.uleb128 0xd
 641 00af 34        		.uleb128 0x34
 642 00b0 00        		.byte	0x0
 643 00b1 03        		.uleb128 0x3
 644 00b2 0E        		.uleb128 0xe
 645 00b3 3A        		.uleb128 0x3a
 646 00b4 0B        		.uleb128 0xb
 647 00b5 3B        		.uleb128 0x3b
 648 00b6 0B        		.uleb128 0xb
 649 00b7 49        		.uleb128 0x49
 650 00b8 13        		.uleb128 0x13
 651 00b9 00        		.byte	0x0
 652 00ba 00        		.byte	0x0
 653 00bb 0E        		.uleb128 0xe
 654 00bc 34        		.uleb128 0x34
 655 00bd 00        		.byte	0x0
 656 00be 03        		.uleb128 0x3
 657 00bf 0E        		.uleb128 0xe
 658 00c0 3A        		.uleb128 0x3a
 659 00c1 0B        		.uleb128 0xb
 660 00c2 3B        		.uleb128 0x3b
 661 00c3 0B        		.uleb128 0xb
 662 00c4 49        		.uleb128 0x49
 663 00c5 13        		.uleb128 0x13
 664 00c6 3F        		.uleb128 0x3f
 665 00c7 0C        		.uleb128 0xc
 666 00c8 3C        		.uleb128 0x3c
 667 00c9 0C        		.uleb128 0xc
 668 00ca 00        		.byte	0x0
 669 00cb 00        		.byte	0x0
 670 00cc 0F        		.uleb128 0xf
 671 00cd 01        		.uleb128 0x1
 672 00ce 01        		.byte	0x1
 673 00cf 49        		.uleb128 0x49
 674 00d0 13        		.uleb128 0x13
 675 00d1 01        		.uleb128 0x1
 676 00d2 13        		.uleb128 0x13
 677 00d3 00        		.byte	0x0
 678 00d4 00        		.byte	0x0
 679 00d5 10        		.uleb128 0x10
 680 00d6 21        		.uleb128 0x21
 681 00d7 00        		.byte	0x0
 682 00d8 49        		.uleb128 0x49
 683 00d9 13        		.uleb128 0x13
 684 00da 2F        		.uleb128 0x2f
GAS LISTING C:\users\mohammadreza\Temp/cc3UF9Fc.s 			page 13


 685 00db 0B        		.uleb128 0xb
 686 00dc 00        		.byte	0x0
 687 00dd 00        		.byte	0x0
 688 00de 11        		.uleb128 0x11
 689 00df 24        		.uleb128 0x24
 690 00e0 00        		.byte	0x0
 691 00e1 0B        		.uleb128 0xb
 692 00e2 0B        		.uleb128 0xb
 693 00e3 3E        		.uleb128 0x3e
 694 00e4 0B        		.uleb128 0xb
 695 00e5 00        		.byte	0x0
 696 00e6 00        		.byte	0x0
 697 00e7 12        		.uleb128 0x12
 698 00e8 34        		.uleb128 0x34
 699 00e9 00        		.byte	0x0
 700 00ea 03        		.uleb128 0x3
 701 00eb 0E        		.uleb128 0xe
 702 00ec 3A        		.uleb128 0x3a
 703 00ed 0B        		.uleb128 0xb
 704 00ee 3B        		.uleb128 0x3b
 705 00ef 0B        		.uleb128 0xb
 706 00f0 49        		.uleb128 0x49
 707 00f1 13        		.uleb128 0x13
 708 00f2 3F        		.uleb128 0x3f
 709 00f3 0C        		.uleb128 0xc
 710 00f4 02        		.uleb128 0x2
 711 00f5 0A        		.uleb128 0xa
 712 00f6 00        		.byte	0x0
 713 00f7 00        		.byte	0x0
 714 00f8 00        		.byte	0x0
 715               		.section	.debug_pubnames,"",@progbits
 716 0000 5500 0000 		.long	0x55
 717 0004 0200      		.word	0x2
 718 0006 0000 0000 		.long	.Ldebug_info0
 719 000a 6D01 0000 		.long	0x16d
 720 000e 9200 0000 		.long	0x92
 721 0012 665F 436F 		.string	"f_ConfigADC"
 721      6E66 6967 
 721      4144 4300 
 722 001e CA00 0000 		.long	0xca
 723 0022 665F 5374 		.string	"f_StartADC"
 723      6172 7441 
 723      4443 00
 724 002d DA00 0000 		.long	0xda
 725 0031 665F 5379 		.string	"f_SysADC"
 725      7341 4443 
 725      00
 726 003a 0201 0000 		.long	0x102
 727 003e 5F5F 7665 		.string	"__vector_14"
 727      6374 6F72 
 727      5F31 3400 
 728 004a 5501 0000 		.long	0x155
 729 004e 765F 4368 		.string	"v_Chan"
 729      616E 00
 730 0055 0000 0000 		.long	0x0
 731               		.section	.debug_aranges,"",@progbits
 732 0000 1C00 0000 		.long	0x1c
GAS LISTING C:\users\mohammadreza\Temp/cc3UF9Fc.s 			page 14


 733 0004 0200      		.word	0x2
 734 0006 0000 0000 		.long	.Ldebug_info0
 735 000a 04        		.byte	0x4
 736 000b 00        		.byte	0x0
 737 000c 0000      		.word	0x0
 738 000e 0000      		.word	0x0
 739 0010 0000 0000 		.long	.Ltext0
 740 0014 EA00 0000 		.long	.Letext0-.Ltext0
 741 0018 0000 0000 		.long	0x0
 742 001c 0000 0000 		.long	0x0
 743               		.section	.debug_line
 744 0000 2201 0000 		.long	.LELT0-.LSLT0
 745               	.LSLT0:
 746 0004 0200      		.word	0x2
 747 0006 5800 0000 		.long	.LELTP0-.LASLTP0
 748               	.LASLTP0:
 749 000a 01        		.byte	0x1
 750 000b 01        		.byte	0x1
 751 000c F6        		.byte	0xf6
 752 000d F5        		.byte	0xf5
 753 000e 0A        		.byte	0xa
 754 000f 00        		.byte	0x0
 755 0010 01        		.byte	0x1
 756 0011 01        		.byte	0x1
 757 0012 01        		.byte	0x1
 758 0013 01        		.byte	0x1
 759 0014 00        		.byte	0x0
 760 0015 00        		.byte	0x0
 761 0016 00        		.byte	0x0
 762 0017 01        		.byte	0x1
 763 0018 7372 632F 		.ascii	"src/periphint"
 763      7065 7269 
 763      7068 696E 
 763      74
 764 0025 00        		.byte	0
 765 0026 7372 632F 		.ascii	"src/periphint/../includes"
 765      7065 7269 
 765      7068 696E 
 765      742F 2E2E 
 765      2F69 6E63 
 766 003f 00        		.byte	0
 767 0040 00        		.byte	0x0
 768 0041 6164 632E 		.string	"adc.c"
 768      6300 
 769 0047 01        		.uleb128 0x1
 770 0048 00        		.uleb128 0x0
 771 0049 00        		.uleb128 0x0
 772 004a 2E2E 2F69 		.string	"../includes/types.h"
 772      6E63 6C75 
 772      6465 732F 
 772      7479 7065 
 772      732E 6800 
 773 005e 01        		.uleb128 0x1
 774 005f 00        		.uleb128 0x0
 775 0060 00        		.uleb128 0x0
 776 0061 00        		.byte	0x0
 777               	.LELTP0:
GAS LISTING C:\users\mohammadreza\Temp/cc3UF9Fc.s 			page 15


 778 0062 00        		.byte	0x0
 779 0063 05        		.uleb128 0x5
 780 0064 02        		.byte	0x2
 781 0065 0000 0000 		.long	.LM1
 782 0069 3E        		.byte	0x3e
 783 006a 00        		.byte	0x0
 784 006b 05        		.uleb128 0x5
 785 006c 02        		.byte	0x2
 786 006d 0000 0000 		.long	.LM2
 787 0071 19        		.byte	0x19
 788 0072 00        		.byte	0x0
 789 0073 05        		.uleb128 0x5
 790 0074 02        		.byte	0x2
 791 0075 0000 0000 		.long	.LM3
 792 0079 1F        		.byte	0x1f
 793 007a 00        		.byte	0x0
 794 007b 05        		.uleb128 0x5
 795 007c 02        		.byte	0x2
 796 007d 0000 0000 		.long	.LM4
 797 0081 15        		.byte	0x15
 798 0082 00        		.byte	0x0
 799 0083 05        		.uleb128 0x5
 800 0084 02        		.byte	0x2
 801 0085 0000 0000 		.long	.LM5
 802 0089 20        		.byte	0x20
 803 008a 00        		.byte	0x0
 804 008b 05        		.uleb128 0x5
 805 008c 02        		.byte	0x2
 806 008d 0000 0000 		.long	.LM6
 807 0091 16        		.byte	0x16
 808 0092 00        		.byte	0x0
 809 0093 05        		.uleb128 0x5
 810 0094 02        		.byte	0x2
 811 0095 0000 0000 		.long	.LM7
 812 0099 17        		.byte	0x17
 813 009a 00        		.byte	0x0
 814 009b 05        		.uleb128 0x5
 815 009c 02        		.byte	0x2
 816 009d 0000 0000 		.long	.LM8
 817 00a1 15        		.byte	0x15
 818 00a2 00        		.byte	0x0
 819 00a3 05        		.uleb128 0x5
 820 00a4 02        		.byte	0x2
 821 00a5 0000 0000 		.long	.LM9
 822 00a9 19        		.byte	0x19
 823 00aa 00        		.byte	0x0
 824 00ab 05        		.uleb128 0x5
 825 00ac 02        		.byte	0x2
 826 00ad 0000 0000 		.long	.LM10
 827 00b1 17        		.byte	0x17
 828 00b2 00        		.byte	0x0
 829 00b3 05        		.uleb128 0x5
 830 00b4 02        		.byte	0x2
 831 00b5 0000 0000 		.long	.LM11
 832 00b9 17        		.byte	0x17
 833 00ba 00        		.byte	0x0
 834 00bb 05        		.uleb128 0x5
GAS LISTING C:\users\mohammadreza\Temp/cc3UF9Fc.s 			page 16


 835 00bc 02        		.byte	0x2
 836 00bd 0000 0000 		.long	.LM12
 837 00c1 15        		.byte	0x15
 838 00c2 00        		.byte	0x0
 839 00c3 05        		.uleb128 0x5
 840 00c4 02        		.byte	0x2
 841 00c5 0000 0000 		.long	.LM13
 842 00c9 03        		.byte	0x3
 843 00ca 74        		.sleb128 -12
 844 00cb 01        		.byte	0x1
 845 00cc 00        		.byte	0x0
 846 00cd 05        		.uleb128 0x5
 847 00ce 02        		.byte	0x2
 848 00cf 0000 0000 		.long	.LM14
 849 00d3 19        		.byte	0x19
 850 00d4 00        		.byte	0x0
 851 00d5 05        		.uleb128 0x5
 852 00d6 02        		.byte	0x2
 853 00d7 0000 0000 		.long	.LM15
 854 00db 2A        		.byte	0x2a
 855 00dc 00        		.byte	0x0
 856 00dd 05        		.uleb128 0x5
 857 00de 02        		.byte	0x2
 858 00df 0000 0000 		.long	.LM16
 859 00e3 18        		.byte	0x18
 860 00e4 00        		.byte	0x0
 861 00e5 05        		.uleb128 0x5
 862 00e6 02        		.byte	0x2
 863 00e7 0000 0000 		.long	.LM17
 864 00eb 16        		.byte	0x16
 865 00ec 00        		.byte	0x0
 866 00ed 05        		.uleb128 0x5
 867 00ee 02        		.byte	0x2
 868 00ef 0000 0000 		.long	.LM18
 869 00f3 19        		.byte	0x19
 870 00f4 00        		.byte	0x0
 871 00f5 05        		.uleb128 0x5
 872 00f6 02        		.byte	0x2
 873 00f7 0000 0000 		.long	.LM19
 874 00fb 16        		.byte	0x16
 875 00fc 00        		.byte	0x0
 876 00fd 05        		.uleb128 0x5
 877 00fe 02        		.byte	0x2
 878 00ff 0000 0000 		.long	.LM20
 879 0103 15        		.byte	0x15
 880 0104 00        		.byte	0x0
 881 0105 05        		.uleb128 0x5
 882 0106 02        		.byte	0x2
 883 0107 0000 0000 		.long	.LM21
 884 010b 16        		.byte	0x16
 885 010c 00        		.byte	0x0
 886 010d 05        		.uleb128 0x5
 887 010e 02        		.byte	0x2
 888 010f 0000 0000 		.long	.LM22
 889 0113 16        		.byte	0x16
 890 0114 00        		.byte	0x0
 891 0115 05        		.uleb128 0x5
GAS LISTING C:\users\mohammadreza\Temp/cc3UF9Fc.s 			page 17


 892 0116 02        		.byte	0x2
 893 0117 0000 0000 		.long	.LM23
 894 011b 11        		.byte	0x11
 895 011c 00        		.byte	0x0
 896 011d 05        		.uleb128 0x5
 897 011e 02        		.byte	0x2
 898 011f 0000 0000 		.long	.Letext0
 899 0123 00        		.byte	0x0
 900 0124 01        		.uleb128 0x1
 901 0125 01        		.byte	0x1
 902               	.LELT0:
 903 0126 1600 0000 		.section	.debug_str,"MS",@progbits,1
 903      0200 1000 
 903      0000 0101 
 903      FB0E 0A00 
 903      0101 0101 
 904               	.LASF13:
 905 0000 665F 436F 		.string	"f_ConfigADC"
 905      6E66 6967 
 905      4144 4300 
 906               	.LASF17:
 907 000c 765F 5379 		.string	"v_SysStat"
 907      7353 7461 
 907      7400 
 908               	.LASF20:
 909 0016 7372 632F 		.string	"src/periphint/adc.c"
 909      7065 7269 
 909      7068 696E 
 909      742F 6164 
 909      632E 6300 
 910               	.LASF16:
 911 002a 765F 6368 		.string	"v_chan_idx"
 911      616E 5F69 
 911      6478 00
 912               	.LASF11:
 913 0035 494E 5431 		.string	"INT16U"
 913      3655 00
 914               	.LASF15:
 915 003c 5F5F 7665 		.string	"__vector_14"
 915      6374 6F72 
 915      5F31 3400 
 916               	.LASF1:
 917 0048 756E 7369 		.string	"unsigned char"
 917      676E 6564 
 917      2063 6861 
 917      7200 
 918               	.LASF21:
 919 0056 5A3A 5C68 		.ascii	"Z:\\ho"
 919      6F
 920 005b 6D65 5C6D 		.string	"me\\mohammadreza\\temo\\Simple-AVR-OS-plus-some-improvement-\\avr_os"
 920      6F68 616D 
 920      6D61 6472 
 920      657A 615C 
 920      7465 6D6F 
 921               	.LASF4:
 922 009c 6C6F 6E67 		.string	"long unsigned int"
 922      2075 6E73 
GAS LISTING C:\users\mohammadreza\Temp/cc3UF9Fc.s 			page 18


 922      6967 6E65 
 922      6420 696E 
 922      7400 
 923               	.LASF8:
 924 00ae 7368 6F72 		.string	"short unsigned int"
 924      7420 756E 
 924      7369 676E 
 924      6564 2069 
 924      6E74 00
 925               	.LASF19:
 926 00c1 474E 5520 		.string	"GNU C 4.3.3"
 926      4320 342E 
 926      332E 3300 
 927               	.LASF23:
 928 00cd 765F 6461 		.string	"v_data"
 928      7461 00
 929               	.LASF2:
 930 00d4 756E 7369 		.string	"unsigned int"
 930      676E 6564 
 930      2069 6E74 
 930      00
 931               	.LASF10:
 932 00e1 494E 5438 		.string	"INT8U"
 932      5500 
 933               	.LASF6:
 934 00e7 6C6F 6E67 		.string	"long long unsigned int"
 934      206C 6F6E 
 934      6720 756E 
 934      7369 676E 
 934      6564 2069 
 935               	.LASF12:
 936 00fe 765F 7465 		.string	"v_temp"
 936      6D70 00
 937               	.LASF22:
 938 0105 665F 5374 		.string	"f_StartADC"
 938      6172 7441 
 938      4443 00
 939               	.LASF5:
 940 0110 6C6F 6E67 		.string	"long long int"
 940      206C 6F6E 
 940      6720 696E 
 940      7400 
 941               	.LASF14:
 942 011e 665F 5379 		.string	"f_SysADC"
 942      7341 4443 
 942      00
 943               	.LASF7:
 944 0127 6368 6172 		.string	"char"
 944      00
 945               	.LASF9:
 946 012c 7368 6F72 		.string	"short int"
 946      7420 696E 
 946      7400 
 947               	.LASF3:
 948 0136 6C6F 6E67 		.string	"long int"
 948      2069 6E74 
 948      00
GAS LISTING C:\users\mohammadreza\Temp/cc3UF9Fc.s 			page 19


 949               	.LASF18:
 950 013f 765F 4368 		.string	"v_Chan"
 950      616E 00
 951               	.LASF0:
 952 0146 7369 676E 		.string	"signed char"
 952      6564 2063 
 952      6861 7200 
 953               	.global __do_clear_bss
GAS LISTING C:\users\mohammadreza\Temp/cc3UF9Fc.s 			page 20


DEFINED SYMBOLS
                            *ABS*:00000000 adc.c
C:\users\mohammadreza\Temp/cc3UF9Fc.s:2      *ABS*:0000003f __SREG__
C:\users\mohammadreza\Temp/cc3UF9Fc.s:3      *ABS*:0000003e __SP_H__
C:\users\mohammadreza\Temp/cc3UF9Fc.s:4      *ABS*:0000003d __SP_L__
C:\users\mohammadreza\Temp/cc3UF9Fc.s:5      *ABS*:00000034 __CCP__
C:\users\mohammadreza\Temp/cc3UF9Fc.s:6      *ABS*:00000000 __tmp_reg__
C:\users\mohammadreza\Temp/cc3UF9Fc.s:7      *ABS*:00000001 __zero_reg__
C:\users\mohammadreza\Temp/cc3UF9Fc.s:18     .text:00000000 f_ConfigADC
                            *COM*:00000010 v_Chan
C:\users\mohammadreza\Temp/cc3UF9Fc.s:88     .text:00000064 f_StartADC
C:\users\mohammadreza\Temp/cc3UF9Fc.s:106    .text:00000072 f_SysADC
C:\users\mohammadreza\Temp/cc3UF9Fc.s:130    .text:00000084 __vector_14

UNDEFINED SYMBOLS
v_SysStat
__do_clear_bss
