GAS LISTING C:\users\mohammadreza\Temp/ccjhlJad.s 			page 1


   1               		.file	"typeconv.c"
   2               	__SREG__ = 0x3f
   3               	__SP_H__ = 0x3e
   4               	__SP_L__ = 0x3d
   5               	__CCP__  = 0x34
   6               	__tmp_reg__ = 0
   7               	__zero_reg__ = 1
   8               		.section	.debug_abbrev,"",@progbits
   9               	.Ldebug_abbrev0:
  10               		.section	.debug_info,"",@progbits
  11               	.Ldebug_info0:
  12               		.section	.debug_line,"",@progbits
  13               	.Ldebug_line0:
  14               		.text
  15               	.Ltext0:
  16               	.global	f_BinHex
  17               		.type	f_BinHex, @function
  18               	f_BinHex:
  19               	.LFB2:
  20               	.LM1:
  21               	.LVL0:
  22               	/* prologue: function */
  23               	/* frame size = 0 */
  24               	.LM2:
  25 0000 982F      		mov r25,r24
  26 0002 9295      		swap r25
  27 0004 9F70      		andi r25,lo8(15)
  28 0006 A0E0      		ldi r26,lo8(lut_Hex.1193)
  29 0008 B0E0      		ldi r27,hi8(lut_Hex.1193)
  30 000a FD01      		movw r30,r26
  31 000c E90F      		add r30,r25
  32 000e F11D      		adc r31,__zero_reg__
  33 0010 9081      		ld r25,Z
  34 0012 FB01      		movw r30,r22
  35 0014 9083      		st Z,r25
  36               	.LM3:
  37 0016 8F70      		andi r24,lo8(15)
  38               	.LVL1:
  39 0018 A80F      		add r26,r24
  40 001a B11D      		adc r27,__zero_reg__
  41 001c 8C91      		ld r24,X
  42               	.LVL2:
  43 001e 8183      		std Z+1,r24
  44               	/* epilogue start */
  45               	.LM4:
  46 0020 0895      		ret
  47               	.LFE2:
  48               		.size	f_BinHex, .-f_BinHex
  49               	.global	f_HexBin
  50               		.type	f_HexBin, @function
  51               	f_HexBin:
  52               	.LFB3:
  53               	.LM5:
  54               	.LVL3:
  55               	/* prologue: function */
  56               	/* frame size = 0 */
  57               	.LM6:
GAS LISTING C:\users\mohammadreza\Temp/ccjhlJad.s 			page 2


  58 0022 FC01      		movw r30,r24
  59               	.LVL4:
  60 0024 40E0      		ldi r20,lo8(0)
  61 0026 50E0      		ldi r21,hi8(0)
  62               	.LVL5:
  63 0028 2CE0      		ldi r18,lo8(12)
  64 002a 30E0      		ldi r19,hi8(12)
  65               	.L6:
  66               	.LM7:
  67 002c 8081      		ld r24,Z
  68               	.LVL6:
  69               	.LM8:
  70 002e 8134      		cpi r24,lo8(65)
  71 0030 04F0      		brlt .L4
  72 0032 8753      		subi r24,lo8(-(-55))
  73               	.LVL7:
  74               	.L5:
  75               	.LM9:
  76 0034 9927      		clr r25
  77 0036 87FD      		sbrc r24,7
  78 0038 9095      		com r25
  79               	.LVL8:
  80 003a 022E      		mov r0,r18
  81 003c 00C0      		rjmp 2f
  82 003e 880F      	1:	lsl r24
  83 0040 991F      		rol r25
  84 0042 0A94      	2:	dec r0
  85 0044 02F4      		brpl 1b
  86               	.LVL9:
  87 0046 482B      		or r20,r24
  88 0048 592B      		or r21,r25
  89 004a 3196      		adiw r30,1
  90 004c 2450      		subi r18,lo8(-(-4))
  91 004e 3040      		sbci r19,hi8(-(-4))
  92               	.LM10:
  93 0050 8FEF      		ldi r24,hi8(-4)
  94 0052 2C3F      		cpi r18,lo8(-4)
  95 0054 3807      		cpc r19,r24
  96               	.LVL10:
  97 0056 01F4      		brne .L6
  98               	.LM11:
  99 0058 CA01      		movw r24,r20
 100               	.LVL11:
 101               	/* epilogue start */
 102 005a 0895      		ret
 103               	.LVL12:
 104               	.L4:
 105               	.LM12:
 106 005c 8053      		subi r24,lo8(-(-48))
 107               	.LVL13:
 108 005e 00C0      		rjmp .L5
 109               	.LFE3:
 110               		.size	f_HexBin, .-f_HexBin
 111               	.global	f_HexBinByte
 112               		.type	f_HexBinByte, @function
 113               	f_HexBinByte:
 114               	.LFB4:
GAS LISTING C:\users\mohammadreza\Temp/ccjhlJad.s 			page 3


 115               	.LM13:
 116               	.LVL14:
 117               	/* prologue: function */
 118               	/* frame size = 0 */
 119 0060 FC01      		movw r30,r24
 120               	.LM14:
 121 0062 8081      		ld r24,Z
 122               	.LVL15:
 123               	.LM15:
 124 0064 8134      		cpi r24,lo8(65)
 125 0066 04F4      		brge .L11
 126               	.LM16:
 127 0068 8053      		subi r24,lo8(-(-48))
 128               	.LVL16:
 129               	.LM17:
 130 006a 982F      		mov r25,r24
 131               	.LVL17:
 132 006c 9295      		swap r25
 133 006e 907F      		andi r25,lo8(-16)
 134               	.LM18:
 135 0070 8181      		ldd r24,Z+1
 136               	.LVL18:
 137               	.LM19:
 138 0072 8134      		cpi r24,lo8(65)
 139 0074 04F0      		brlt .L13
 140               	.L16:
 141 0076 8753      		subi r24,lo8(-(-55))
 142               	.LVL19:
 143               	.LM20:
 144 0078 892B      		or r24,r25
 145               	.LVL20:
 146               	/* epilogue start */
 147 007a 0895      		ret
 148               	.LVL21:
 149               	.L11:
 150               	.LM21:
 151 007c 8753      		subi r24,lo8(-(-55))
 152               	.LVL22:
 153               	.LM22:
 154 007e 982F      		mov r25,r24
 155               	.LVL23:
 156 0080 9295      		swap r25
 157 0082 907F      		andi r25,lo8(-16)
 158               	.LM23:
 159 0084 8181      		ldd r24,Z+1
 160               	.LVL24:
 161               	.LM24:
 162 0086 8134      		cpi r24,lo8(65)
 163 0088 04F4      		brge .L16
 164               	.L13:
 165               	.LM25:
 166 008a 8053      		subi r24,lo8(-(-48))
 167               	.LVL25:
 168               	.LM26:
 169 008c 892B      		or r24,r25
 170               	.LVL26:
 171 008e 0895      		ret
GAS LISTING C:\users\mohammadreza\Temp/ccjhlJad.s 			page 4


 172               	.LFE4:
 173               		.size	f_HexBinByte, .-f_HexBinByte
 174               		.data
 175               		.type	lut_Hex.1193, @object
 176               		.size	lut_Hex.1193, 16
 177               	lut_Hex.1193:
 178 0000 30        		.byte	48
 179 0001 31        		.byte	49
 180 0002 32        		.byte	50
 181 0003 33        		.byte	51
 182 0004 34        		.byte	52
 183 0005 35        		.byte	53
 184 0006 36        		.byte	54
 185 0007 37        		.byte	55
 186 0008 38        		.byte	56
 187 0009 39        		.byte	57
 188 000a 41        		.byte	65
 189 000b 42        		.byte	66
 190 000c 43        		.byte	67
 191 000d 44        		.byte	68
 192 000e 45        		.byte	69
 193 000f 46        		.byte	70
 194               		.section	.debug_frame,"",@progbits
 195               	.Lframe0:
 196 0000 0C00 0000 		.long	.LECIE0-.LSCIE0
 197               	.LSCIE0:
 198 0004 FFFF FFFF 		.long	0xffffffff
 199 0008 01        		.byte	0x1
 200 0009 00        		.string	""
 201 000a 01        		.uleb128 0x1
 202 000b 7F        		.sleb128 -1
 203 000c 24        		.byte	0x24
 204 000d 0C        		.byte	0xc
 205 000e 20        		.uleb128 0x20
 206 000f 00        		.uleb128 0x0
 207               		.p2align	2
 208               	.LECIE0:
 209               	.LSFDE0:
 210 0010 0C00 0000 		.long	.LEFDE0-.LASFDE0
 211               	.LASFDE0:
 212 0014 0000 0000 		.long	.Lframe0
 213 0018 0000 0000 		.long	.LFB2
 214 001c 2200 0000 		.long	.LFE2-.LFB2
 215               		.p2align	2
 216               	.LEFDE0:
 217               	.LSFDE2:
 218 0020 0C00 0000 		.long	.LEFDE2-.LASFDE2
 219               	.LASFDE2:
 220 0024 0000 0000 		.long	.Lframe0
 221 0028 0000 0000 		.long	.LFB3
 222 002c 3E00 0000 		.long	.LFE3-.LFB3
 223               		.p2align	2
 224               	.LEFDE2:
 225               	.LSFDE4:
 226 0030 0C00 0000 		.long	.LEFDE4-.LASFDE4
 227               	.LASFDE4:
 228 0034 0000 0000 		.long	.Lframe0
GAS LISTING C:\users\mohammadreza\Temp/ccjhlJad.s 			page 5


 229 0038 0000 0000 		.long	.LFB4
 230 003c 3000 0000 		.long	.LFE4-.LFB4
 231               		.p2align	2
 232               	.LEFDE4:
 233               		.text
 234               	.Letext0:
 235               		.section	.debug_loc,"",@progbits
 236               	.Ldebug_loc0:
 237               	.LLST1:
 238 0000 0000 0000 		.long	.LVL0-.Ltext0
 239 0004 1E00 0000 		.long	.LVL2-.Ltext0
 240 0008 0100      		.word	0x1
 241 000a 68        		.byte	0x68
 242 000b 0000 0000 		.long	0x0
 243 000f 0000 0000 		.long	0x0
 244               	.LLST3:
 245 0013 2200 0000 		.long	.LVL3-.Ltext0
 246 0017 2400 0000 		.long	.LVL4-.Ltext0
 247 001b 0600      		.word	0x6
 248 001d 68        		.byte	0x68
 249 001e 93        		.byte	0x93
 250 001f 01        		.uleb128 0x1
 251 0020 69        		.byte	0x69
 252 0021 93        		.byte	0x93
 253 0022 01        		.uleb128 0x1
 254 0023 0000 0000 		.long	0x0
 255 0027 0000 0000 		.long	0x0
 256               	.LLST4:
 257 002b 2800 0000 		.long	.LVL5-.Ltext0
 258 002f 5A00 0000 		.long	.LVL11-.Ltext0
 259 0033 0600      		.word	0x6
 260 0035 64        		.byte	0x64
 261 0036 93        		.byte	0x93
 262 0037 01        		.uleb128 0x1
 263 0038 65        		.byte	0x65
 264 0039 93        		.byte	0x93
 265 003a 01        		.uleb128 0x1
 266 003b 5C00 0000 		.long	.LVL12-.Ltext0
 267 003f 6000 0000 		.long	.LFE3-.Ltext0
 268 0043 0600      		.word	0x6
 269 0045 64        		.byte	0x64
 270 0046 93        		.byte	0x93
 271 0047 01        		.uleb128 0x1
 272 0048 65        		.byte	0x65
 273 0049 93        		.byte	0x93
 274 004a 01        		.uleb128 0x1
 275 004b 0000 0000 		.long	0x0
 276 004f 0000 0000 		.long	0x0
 277               	.LLST5:
 278 0053 2E00 0000 		.long	.LVL6-.Ltext0
 279 0057 5600 0000 		.long	.LVL10-.Ltext0
 280 005b 0100      		.word	0x1
 281 005d 68        		.byte	0x68
 282 005e 5C00 0000 		.long	.LVL12-.Ltext0
 283 0062 6000 0000 		.long	.LFE3-.Ltext0
 284 0066 0100      		.word	0x1
 285 0068 68        		.byte	0x68
GAS LISTING C:\users\mohammadreza\Temp/ccjhlJad.s 			page 6


 286 0069 0000 0000 		.long	0x0
 287 006d 0000 0000 		.long	0x0
 288               	.LLST7:
 289 0071 6000 0000 		.long	.LVL14-.Ltext0
 290 0075 6400 0000 		.long	.LVL15-.Ltext0
 291 0079 0600      		.word	0x6
 292 007b 68        		.byte	0x68
 293 007c 93        		.byte	0x93
 294 007d 01        		.uleb128 0x1
 295 007e 69        		.byte	0x69
 296 007f 93        		.byte	0x93
 297 0080 01        		.uleb128 0x1
 298 0081 6400 0000 		.long	.LVL15-.Ltext0
 299 0085 9000 0000 		.long	.LFE4-.Ltext0
 300 0089 0600      		.word	0x6
 301 008b 6E        		.byte	0x6e
 302 008c 93        		.byte	0x93
 303 008d 01        		.uleb128 0x1
 304 008e 6F        		.byte	0x6f
 305 008f 93        		.byte	0x93
 306 0090 01        		.uleb128 0x1
 307 0091 0000 0000 		.long	0x0
 308 0095 0000 0000 		.long	0x0
 309               	.LLST8:
 310 0099 6C00 0000 		.long	.LVL17-.Ltext0
 311 009d 7C00 0000 		.long	.LVL21-.Ltext0
 312 00a1 0100      		.word	0x1
 313 00a3 69        		.byte	0x69
 314 00a4 8000 0000 		.long	.LVL23-.Ltext0
 315 00a8 9000 0000 		.long	.LFE4-.Ltext0
 316 00ac 0100      		.word	0x1
 317 00ae 69        		.byte	0x69
 318 00af 0000 0000 		.long	0x0
 319 00b3 0000 0000 		.long	0x0
 320               	.LLST9:
 321 00b7 6400 0000 		.long	.LVL15-.Ltext0
 322 00bb 7A00 0000 		.long	.LVL20-.Ltext0
 323 00bf 0100      		.word	0x1
 324 00c1 68        		.byte	0x68
 325 00c2 7C00 0000 		.long	.LVL21-.Ltext0
 326 00c6 8E00 0000 		.long	.LVL26-.Ltext0
 327 00ca 0100      		.word	0x1
 328 00cc 68        		.byte	0x68
 329 00cd 0000 0000 		.long	0x0
 330 00d1 0000 0000 		.long	0x0
 331               		.section	.debug_info
 332 0000 7C01 0000 		.long	0x17c
 333 0004 0200      		.word	0x2
 334 0006 0000 0000 		.long	.Ldebug_abbrev0
 335 000a 04        		.byte	0x4
 336 000b 01        		.uleb128 0x1
 337 000c 0000 0000 		.long	.LASF17
 338 0010 01        		.byte	0x1
 339 0011 0000 0000 		.long	.LASF18
 340 0015 0000 0000 		.long	.LASF19
 341 0019 0000 0000 		.long	.Ltext0
 342 001d 0000 0000 		.long	.Letext0
GAS LISTING C:\users\mohammadreza\Temp/ccjhlJad.s 			page 7


 343 0021 0000 0000 		.long	.Ldebug_line0
 344 0025 02        		.uleb128 0x2
 345 0026 01        		.byte	0x1
 346 0027 08        		.byte	0x8
 347 0028 0000 0000 		.long	.LASF0
 348 002c 02        		.uleb128 0x2
 349 002d 01        		.byte	0x1
 350 002e 06        		.byte	0x6
 351 002f 0000 0000 		.long	.LASF1
 352 0033 02        		.uleb128 0x2
 353 0034 02        		.byte	0x2
 354 0035 07        		.byte	0x7
 355 0036 0000 0000 		.long	.LASF2
 356 003a 02        		.uleb128 0x2
 357 003b 02        		.byte	0x2
 358 003c 05        		.byte	0x5
 359 003d 0000 0000 		.long	.LASF3
 360 0041 03        		.uleb128 0x3
 361 0042 0000 0000 		.long	.LASF4
 362 0046 02        		.byte	0x2
 363 0047 0D        		.byte	0xd
 364 0048 2500 0000 		.long	0x25
 365 004c 03        		.uleb128 0x3
 366 004d 0000 0000 		.long	.LASF5
 367 0051 02        		.byte	0x2
 368 0052 0E        		.byte	0xe
 369 0053 2C00 0000 		.long	0x2c
 370 0057 03        		.uleb128 0x3
 371 0058 0000 0000 		.long	.LASF6
 372 005c 02        		.byte	0x2
 373 005d 0F        		.byte	0xf
 374 005e 3300 0000 		.long	0x33
 375 0062 02        		.uleb128 0x2
 376 0063 04        		.byte	0x4
 377 0064 07        		.byte	0x7
 378 0065 0000 0000 		.long	.LASF7
 379 0069 02        		.uleb128 0x2
 380 006a 04        		.byte	0x4
 381 006b 05        		.byte	0x5
 382 006c 0000 0000 		.long	.LASF8
 383 0070 04        		.uleb128 0x4
 384 0071 01        		.byte	0x1
 385 0072 0000 0000 		.long	.LASF20
 386 0076 01        		.byte	0x1
 387 0077 22        		.byte	0x22
 388 0078 01        		.byte	0x1
 389 0079 0000 0000 		.long	.LFB2
 390 007d 0000 0000 		.long	.LFE2
 391 0081 02        		.byte	0x2
 392 0082 90        		.byte	0x90
 393 0083 20        		.uleb128 0x20
 394 0084 BB00 0000 		.long	0xbb
 395 0088 05        		.uleb128 0x5
 396 0089 0000 0000 		.long	.LASF9
 397 008d 01        		.byte	0x1
 398 008e 21        		.byte	0x21
 399 008f 4100 0000 		.long	0x41
GAS LISTING C:\users\mohammadreza\Temp/ccjhlJad.s 			page 8


 400 0093 0000 0000 		.long	.LLST1
 401 0097 06        		.uleb128 0x6
 402 0098 0000 0000 		.long	.LASF10
 403 009c 01        		.byte	0x1
 404 009d 21        		.byte	0x21
 405 009e BB00 0000 		.long	0xbb
 406 00a2 06        		.byte	0x6
 407 00a3 66        		.byte	0x66
 408 00a4 93        		.byte	0x93
 409 00a5 01        		.uleb128 0x1
 410 00a6 67        		.byte	0x67
 411 00a7 93        		.byte	0x93
 412 00a8 01        		.uleb128 0x1
 413 00a9 07        		.uleb128 0x7
 414 00aa 0000 0000 		.long	.LASF12
 415 00ae 01        		.byte	0x1
 416 00af 23        		.byte	0x23
 417 00b0 7A01 0000 		.long	0x17a
 418 00b4 05        		.byte	0x5
 419 00b5 03        		.byte	0x3
 420 00b6 0000 0000 		.long	lut_Hex.1193
 421 00ba 00        		.byte	0x0
 422 00bb 08        		.uleb128 0x8
 423 00bc 02        		.byte	0x2
 424 00bd 4C00 0000 		.long	0x4c
 425 00c1 09        		.uleb128 0x9
 426 00c2 01        		.byte	0x1
 427 00c3 0000 0000 		.long	.LASF15
 428 00c7 01        		.byte	0x1
 429 00c8 32        		.byte	0x32
 430 00c9 01        		.byte	0x1
 431 00ca 5700 0000 		.long	0x57
 432 00ce 0000 0000 		.long	.LFB3
 433 00d2 0000 0000 		.long	.LFE3
 434 00d6 02        		.byte	0x2
 435 00d7 90        		.byte	0x90
 436 00d8 20        		.uleb128 0x20
 437 00d9 1401 0000 		.long	0x114
 438 00dd 05        		.uleb128 0x5
 439 00de 0000 0000 		.long	.LASF11
 440 00e2 01        		.byte	0x1
 441 00e3 31        		.byte	0x31
 442 00e4 BB00 0000 		.long	0xbb
 443 00e8 0000 0000 		.long	.LLST3
 444 00ec 0A        		.uleb128 0xa
 445 00ed 0000 0000 		.long	.LASF13
 446 00f1 01        		.byte	0x1
 447 00f2 33        		.byte	0x33
 448 00f3 5700 0000 		.long	0x57
 449 00f7 0000 0000 		.long	.LLST4
 450 00fb 0B        		.uleb128 0xb
 451 00fc 6900      		.string	"i"
 452 00fe 01        		.byte	0x1
 453 00ff 34        		.byte	0x34
 454 0100 4100 0000 		.long	0x41
 455 0104 0A        		.uleb128 0xa
 456 0105 0000 0000 		.long	.LASF14
GAS LISTING C:\users\mohammadreza\Temp/ccjhlJad.s 			page 9


 457 0109 01        		.byte	0x1
 458 010a 35        		.byte	0x35
 459 010b 4C00 0000 		.long	0x4c
 460 010f 0000 0000 		.long	.LLST5
 461 0113 00        		.byte	0x0
 462 0114 09        		.uleb128 0x9
 463 0115 01        		.byte	0x1
 464 0116 0000 0000 		.long	.LASF16
 465 011a 01        		.byte	0x1
 466 011b 4C        		.byte	0x4c
 467 011c 01        		.byte	0x1
 468 011d 4100 0000 		.long	0x41
 469 0121 0000 0000 		.long	.LFB4
 470 0125 0000 0000 		.long	.LFE4
 471 0129 02        		.byte	0x2
 472 012a 90        		.byte	0x90
 473 012b 20        		.uleb128 0x20
 474 012c 6701 0000 		.long	0x167
 475 0130 05        		.uleb128 0x5
 476 0131 0000 0000 		.long	.LASF11
 477 0135 01        		.byte	0x1
 478 0136 4B        		.byte	0x4b
 479 0137 BB00 0000 		.long	0xbb
 480 013b 0000 0000 		.long	.LLST7
 481 013f 0A        		.uleb128 0xa
 482 0140 0000 0000 		.long	.LASF13
 483 0144 01        		.byte	0x1
 484 0145 4D        		.byte	0x4d
 485 0146 4100 0000 		.long	0x41
 486 014a 0000 0000 		.long	.LLST8
 487 014e 0B        		.uleb128 0xb
 488 014f 6900      		.string	"i"
 489 0151 01        		.byte	0x1
 490 0152 4E        		.byte	0x4e
 491 0153 4100 0000 		.long	0x41
 492 0157 0A        		.uleb128 0xa
 493 0158 0000 0000 		.long	.LASF14
 494 015c 01        		.byte	0x1
 495 015d 4F        		.byte	0x4f
 496 015e 4C00 0000 		.long	0x4c
 497 0162 0000 0000 		.long	.LLST9
 498 0166 00        		.byte	0x0
 499 0167 0C        		.uleb128 0xc
 500 0168 4C00 0000 		.long	0x4c
 501 016c 7701 0000 		.long	0x177
 502 0170 0D        		.uleb128 0xd
 503 0171 7701 0000 		.long	0x177
 504 0175 0F        		.byte	0xf
 505 0176 00        		.byte	0x0
 506 0177 0E        		.uleb128 0xe
 507 0178 02        		.byte	0x2
 508 0179 07        		.byte	0x7
 509 017a 0F        		.uleb128 0xf
 510 017b 6701 0000 		.long	0x167
 511 017f 00        		.byte	0x0
 512               		.section	.debug_abbrev
 513 0000 01        		.uleb128 0x1
GAS LISTING C:\users\mohammadreza\Temp/ccjhlJad.s 			page 10


 514 0001 11        		.uleb128 0x11
 515 0002 01        		.byte	0x1
 516 0003 25        		.uleb128 0x25
 517 0004 0E        		.uleb128 0xe
 518 0005 13        		.uleb128 0x13
 519 0006 0B        		.uleb128 0xb
 520 0007 03        		.uleb128 0x3
 521 0008 0E        		.uleb128 0xe
 522 0009 1B        		.uleb128 0x1b
 523 000a 0E        		.uleb128 0xe
 524 000b 11        		.uleb128 0x11
 525 000c 01        		.uleb128 0x1
 526 000d 12        		.uleb128 0x12
 527 000e 01        		.uleb128 0x1
 528 000f 10        		.uleb128 0x10
 529 0010 06        		.uleb128 0x6
 530 0011 00        		.byte	0x0
 531 0012 00        		.byte	0x0
 532 0013 02        		.uleb128 0x2
 533 0014 24        		.uleb128 0x24
 534 0015 00        		.byte	0x0
 535 0016 0B        		.uleb128 0xb
 536 0017 0B        		.uleb128 0xb
 537 0018 3E        		.uleb128 0x3e
 538 0019 0B        		.uleb128 0xb
 539 001a 03        		.uleb128 0x3
 540 001b 0E        		.uleb128 0xe
 541 001c 00        		.byte	0x0
 542 001d 00        		.byte	0x0
 543 001e 03        		.uleb128 0x3
 544 001f 16        		.uleb128 0x16
 545 0020 00        		.byte	0x0
 546 0021 03        		.uleb128 0x3
 547 0022 0E        		.uleb128 0xe
 548 0023 3A        		.uleb128 0x3a
 549 0024 0B        		.uleb128 0xb
 550 0025 3B        		.uleb128 0x3b
 551 0026 0B        		.uleb128 0xb
 552 0027 49        		.uleb128 0x49
 553 0028 13        		.uleb128 0x13
 554 0029 00        		.byte	0x0
 555 002a 00        		.byte	0x0
 556 002b 04        		.uleb128 0x4
 557 002c 2E        		.uleb128 0x2e
 558 002d 01        		.byte	0x1
 559 002e 3F        		.uleb128 0x3f
 560 002f 0C        		.uleb128 0xc
 561 0030 03        		.uleb128 0x3
 562 0031 0E        		.uleb128 0xe
 563 0032 3A        		.uleb128 0x3a
 564 0033 0B        		.uleb128 0xb
 565 0034 3B        		.uleb128 0x3b
 566 0035 0B        		.uleb128 0xb
 567 0036 27        		.uleb128 0x27
 568 0037 0C        		.uleb128 0xc
 569 0038 11        		.uleb128 0x11
 570 0039 01        		.uleb128 0x1
GAS LISTING C:\users\mohammadreza\Temp/ccjhlJad.s 			page 11


 571 003a 12        		.uleb128 0x12
 572 003b 01        		.uleb128 0x1
 573 003c 40        		.uleb128 0x40
 574 003d 0A        		.uleb128 0xa
 575 003e 01        		.uleb128 0x1
 576 003f 13        		.uleb128 0x13
 577 0040 00        		.byte	0x0
 578 0041 00        		.byte	0x0
 579 0042 05        		.uleb128 0x5
 580 0043 05        		.uleb128 0x5
 581 0044 00        		.byte	0x0
 582 0045 03        		.uleb128 0x3
 583 0046 0E        		.uleb128 0xe
 584 0047 3A        		.uleb128 0x3a
 585 0048 0B        		.uleb128 0xb
 586 0049 3B        		.uleb128 0x3b
 587 004a 0B        		.uleb128 0xb
 588 004b 49        		.uleb128 0x49
 589 004c 13        		.uleb128 0x13
 590 004d 02        		.uleb128 0x2
 591 004e 06        		.uleb128 0x6
 592 004f 00        		.byte	0x0
 593 0050 00        		.byte	0x0
 594 0051 06        		.uleb128 0x6
 595 0052 05        		.uleb128 0x5
 596 0053 00        		.byte	0x0
 597 0054 03        		.uleb128 0x3
 598 0055 0E        		.uleb128 0xe
 599 0056 3A        		.uleb128 0x3a
 600 0057 0B        		.uleb128 0xb
 601 0058 3B        		.uleb128 0x3b
 602 0059 0B        		.uleb128 0xb
 603 005a 49        		.uleb128 0x49
 604 005b 13        		.uleb128 0x13
 605 005c 02        		.uleb128 0x2
 606 005d 0A        		.uleb128 0xa
 607 005e 00        		.byte	0x0
 608 005f 00        		.byte	0x0
 609 0060 07        		.uleb128 0x7
 610 0061 34        		.uleb128 0x34
 611 0062 00        		.byte	0x0
 612 0063 03        		.uleb128 0x3
 613 0064 0E        		.uleb128 0xe
 614 0065 3A        		.uleb128 0x3a
 615 0066 0B        		.uleb128 0xb
 616 0067 3B        		.uleb128 0x3b
 617 0068 0B        		.uleb128 0xb
 618 0069 49        		.uleb128 0x49
 619 006a 13        		.uleb128 0x13
 620 006b 02        		.uleb128 0x2
 621 006c 0A        		.uleb128 0xa
 622 006d 00        		.byte	0x0
 623 006e 00        		.byte	0x0
 624 006f 08        		.uleb128 0x8
 625 0070 0F        		.uleb128 0xf
 626 0071 00        		.byte	0x0
 627 0072 0B        		.uleb128 0xb
GAS LISTING C:\users\mohammadreza\Temp/ccjhlJad.s 			page 12


 628 0073 0B        		.uleb128 0xb
 629 0074 49        		.uleb128 0x49
 630 0075 13        		.uleb128 0x13
 631 0076 00        		.byte	0x0
 632 0077 00        		.byte	0x0
 633 0078 09        		.uleb128 0x9
 634 0079 2E        		.uleb128 0x2e
 635 007a 01        		.byte	0x1
 636 007b 3F        		.uleb128 0x3f
 637 007c 0C        		.uleb128 0xc
 638 007d 03        		.uleb128 0x3
 639 007e 0E        		.uleb128 0xe
 640 007f 3A        		.uleb128 0x3a
 641 0080 0B        		.uleb128 0xb
 642 0081 3B        		.uleb128 0x3b
 643 0082 0B        		.uleb128 0xb
 644 0083 27        		.uleb128 0x27
 645 0084 0C        		.uleb128 0xc
 646 0085 49        		.uleb128 0x49
 647 0086 13        		.uleb128 0x13
 648 0087 11        		.uleb128 0x11
 649 0088 01        		.uleb128 0x1
 650 0089 12        		.uleb128 0x12
 651 008a 01        		.uleb128 0x1
 652 008b 40        		.uleb128 0x40
 653 008c 0A        		.uleb128 0xa
 654 008d 01        		.uleb128 0x1
 655 008e 13        		.uleb128 0x13
 656 008f 00        		.byte	0x0
 657 0090 00        		.byte	0x0
 658 0091 0A        		.uleb128 0xa
 659 0092 34        		.uleb128 0x34
 660 0093 00        		.byte	0x0
 661 0094 03        		.uleb128 0x3
 662 0095 0E        		.uleb128 0xe
 663 0096 3A        		.uleb128 0x3a
 664 0097 0B        		.uleb128 0xb
 665 0098 3B        		.uleb128 0x3b
 666 0099 0B        		.uleb128 0xb
 667 009a 49        		.uleb128 0x49
 668 009b 13        		.uleb128 0x13
 669 009c 02        		.uleb128 0x2
 670 009d 06        		.uleb128 0x6
 671 009e 00        		.byte	0x0
 672 009f 00        		.byte	0x0
 673 00a0 0B        		.uleb128 0xb
 674 00a1 34        		.uleb128 0x34
 675 00a2 00        		.byte	0x0
 676 00a3 03        		.uleb128 0x3
 677 00a4 08        		.uleb128 0x8
 678 00a5 3A        		.uleb128 0x3a
 679 00a6 0B        		.uleb128 0xb
 680 00a7 3B        		.uleb128 0x3b
 681 00a8 0B        		.uleb128 0xb
 682 00a9 49        		.uleb128 0x49
 683 00aa 13        		.uleb128 0x13
 684 00ab 00        		.byte	0x0
GAS LISTING C:\users\mohammadreza\Temp/ccjhlJad.s 			page 13


 685 00ac 00        		.byte	0x0
 686 00ad 0C        		.uleb128 0xc
 687 00ae 01        		.uleb128 0x1
 688 00af 01        		.byte	0x1
 689 00b0 49        		.uleb128 0x49
 690 00b1 13        		.uleb128 0x13
 691 00b2 01        		.uleb128 0x1
 692 00b3 13        		.uleb128 0x13
 693 00b4 00        		.byte	0x0
 694 00b5 00        		.byte	0x0
 695 00b6 0D        		.uleb128 0xd
 696 00b7 21        		.uleb128 0x21
 697 00b8 00        		.byte	0x0
 698 00b9 49        		.uleb128 0x49
 699 00ba 13        		.uleb128 0x13
 700 00bb 2F        		.uleb128 0x2f
 701 00bc 0B        		.uleb128 0xb
 702 00bd 00        		.byte	0x0
 703 00be 00        		.byte	0x0
 704 00bf 0E        		.uleb128 0xe
 705 00c0 24        		.uleb128 0x24
 706 00c1 00        		.byte	0x0
 707 00c2 0B        		.uleb128 0xb
 708 00c3 0B        		.uleb128 0xb
 709 00c4 3E        		.uleb128 0x3e
 710 00c5 0B        		.uleb128 0xb
 711 00c6 00        		.byte	0x0
 712 00c7 00        		.byte	0x0
 713 00c8 0F        		.uleb128 0xf
 714 00c9 26        		.uleb128 0x26
 715 00ca 00        		.byte	0x0
 716 00cb 49        		.uleb128 0x49
 717 00cc 13        		.uleb128 0x13
 718 00cd 00        		.byte	0x0
 719 00ce 00        		.byte	0x0
 720 00cf 00        		.byte	0x0
 721               		.section	.debug_pubnames,"",@progbits
 722 0000 3900 0000 		.long	0x39
 723 0004 0200      		.word	0x2
 724 0006 0000 0000 		.long	.Ldebug_info0
 725 000a 8001 0000 		.long	0x180
 726 000e 7000 0000 		.long	0x70
 727 0012 665F 4269 		.string	"f_BinHex"
 727      6E48 6578 
 727      00
 728 001b C100 0000 		.long	0xc1
 729 001f 665F 4865 		.string	"f_HexBin"
 729      7842 696E 
 729      00
 730 0028 1401 0000 		.long	0x114
 731 002c 665F 4865 		.string	"f_HexBinByte"
 731      7842 696E 
 731      4279 7465 
 731      00
 732 0039 0000 0000 		.long	0x0
 733               		.section	.debug_aranges,"",@progbits
 734 0000 1C00 0000 		.long	0x1c
GAS LISTING C:\users\mohammadreza\Temp/ccjhlJad.s 			page 14


 735 0004 0200      		.word	0x2
 736 0006 0000 0000 		.long	.Ldebug_info0
 737 000a 04        		.byte	0x4
 738 000b 00        		.byte	0x0
 739 000c 0000      		.word	0x0
 740 000e 0000      		.word	0x0
 741 0010 0000 0000 		.long	.Ltext0
 742 0014 9000 0000 		.long	.Letext0-.Ltext0
 743 0018 0000 0000 		.long	0x0
 744 001c 0000 0000 		.long	0x0
 745               		.section	.debug_line
 746 0000 3501 0000 		.long	.LELT0-.LSLT0
 747               	.LSLT0:
 748 0004 0200      		.word	0x2
 749 0006 5500 0000 		.long	.LELTP0-.LASLTP0
 750               	.LASLTP0:
 751 000a 01        		.byte	0x1
 752 000b 01        		.byte	0x1
 753 000c F6        		.byte	0xf6
 754 000d F5        		.byte	0xf5
 755 000e 0A        		.byte	0xa
 756 000f 00        		.byte	0x0
 757 0010 01        		.byte	0x1
 758 0011 01        		.byte	0x1
 759 0012 01        		.byte	0x1
 760 0013 01        		.byte	0x1
 761 0014 00        		.byte	0x0
 762 0015 00        		.byte	0x0
 763 0016 00        		.byte	0x0
 764 0017 01        		.byte	0x1
 765 0018 7372 632F 		.ascii	"src/Utils"
 765      5574 696C 
 765      73
 766 0021 00        		.byte	0
 767 0022 7372 632F 		.ascii	"src/Utils/../includes"
 767      5574 696C 
 767      732F 2E2E 
 767      2F69 6E63 
 767      6C75 6465 
 768 0037 00        		.byte	0
 769 0038 00        		.byte	0x0
 770 0039 7479 7065 		.string	"typeconv.c"
 770      636F 6E76 
 770      2E63 00
 771 0044 01        		.uleb128 0x1
 772 0045 00        		.uleb128 0x0
 773 0046 00        		.uleb128 0x0
 774 0047 2E2E 2F69 		.string	"../includes/types.h"
 774      6E63 6C75 
 774      6465 732F 
 774      7479 7065 
 774      732E 6800 
 775 005b 01        		.uleb128 0x1
 776 005c 00        		.uleb128 0x0
 777 005d 00        		.uleb128 0x0
 778 005e 00        		.byte	0x0
 779               	.LELTP0:
GAS LISTING C:\users\mohammadreza\Temp/ccjhlJad.s 			page 15


 780 005f 00        		.byte	0x0
 781 0060 05        		.uleb128 0x5
 782 0061 02        		.byte	0x2
 783 0062 0000 0000 		.long	.LM1
 784 0066 35        		.byte	0x35
 785 0067 00        		.byte	0x0
 786 0068 05        		.uleb128 0x5
 787 0069 02        		.byte	0x2
 788 006a 0000 0000 		.long	.LM2
 789 006e 16        		.byte	0x16
 790 006f 00        		.byte	0x0
 791 0070 05        		.uleb128 0x5
 792 0071 02        		.byte	0x2
 793 0072 0000 0000 		.long	.LM3
 794 0076 15        		.byte	0x15
 795 0077 00        		.byte	0x0
 796 0078 05        		.uleb128 0x5
 797 0079 02        		.byte	0x2
 798 007a 0000 0000 		.long	.LM4
 799 007e 15        		.byte	0x15
 800 007f 00        		.byte	0x0
 801 0080 05        		.uleb128 0x5
 802 0081 02        		.byte	0x2
 803 0082 0000 0000 		.long	.LM5
 804 0086 20        		.byte	0x20
 805 0087 00        		.byte	0x0
 806 0088 05        		.uleb128 0x5
 807 0089 02        		.byte	0x2
 808 008a 0000 0000 		.long	.LM6
 809 008e 01        		.byte	0x1
 810 008f 00        		.byte	0x0
 811 0090 05        		.uleb128 0x5
 812 0091 02        		.byte	0x2
 813 0092 0000 0000 		.long	.LM7
 814 0096 1B        		.byte	0x1b
 815 0097 00        		.byte	0x0
 816 0098 05        		.uleb128 0x5
 817 0099 02        		.byte	0x2
 818 009a 0000 0000 		.long	.LM8
 819 009e 15        		.byte	0x15
 820 009f 00        		.byte	0x0
 821 00a0 05        		.uleb128 0x5
 822 00a1 02        		.byte	0x2
 823 00a2 0000 0000 		.long	.LM9
 824 00a6 16        		.byte	0x16
 825 00a7 00        		.byte	0x0
 826 00a8 05        		.uleb128 0x5
 827 00a9 02        		.byte	0x2
 828 00aa 0000 0000 		.long	.LM10
 829 00ae 0F        		.byte	0xf
 830 00af 00        		.byte	0x0
 831 00b0 05        		.uleb128 0x5
 832 00b1 02        		.byte	0x2
 833 00b2 0000 0000 		.long	.LM11
 834 00b6 1D        		.byte	0x1d
 835 00b7 00        		.byte	0x0
 836 00b8 05        		.uleb128 0x5
GAS LISTING C:\users\mohammadreza\Temp/ccjhlJad.s 			page 16


 837 00b9 02        		.byte	0x2
 838 00ba 0000 0000 		.long	.LM12
 839 00be 0F        		.byte	0xf
 840 00bf 00        		.byte	0x0
 841 00c0 05        		.uleb128 0x5
 842 00c1 02        		.byte	0x2
 843 00c2 0000 0000 		.long	.LM13
 844 00c6 25        		.byte	0x25
 845 00c7 00        		.byte	0x0
 846 00c8 05        		.uleb128 0x5
 847 00c9 02        		.byte	0x2
 848 00ca 0000 0000 		.long	.LM14
 849 00ce 1B        		.byte	0x1b
 850 00cf 00        		.byte	0x0
 851 00d0 05        		.uleb128 0x5
 852 00d1 02        		.byte	0x2
 853 00d2 0000 0000 		.long	.LM15
 854 00d6 15        		.byte	0x15
 855 00d7 00        		.byte	0x0
 856 00d8 05        		.uleb128 0x5
 857 00d9 02        		.byte	0x2
 858 00da 0000 0000 		.long	.LM16
 859 00de 15        		.byte	0x15
 860 00df 00        		.byte	0x0
 861 00e0 05        		.uleb128 0x5
 862 00e1 02        		.byte	0x2
 863 00e2 0000 0000 		.long	.LM17
 864 00e6 15        		.byte	0x15
 865 00e7 00        		.byte	0x0
 866 00e8 05        		.uleb128 0x5
 867 00e9 02        		.byte	0x2
 868 00ea 0000 0000 		.long	.LM18
 869 00ee 11        		.byte	0x11
 870 00ef 00        		.byte	0x0
 871 00f0 05        		.uleb128 0x5
 872 00f1 02        		.byte	0x2
 873 00f2 0000 0000 		.long	.LM19
 874 00f6 15        		.byte	0x15
 875 00f7 00        		.byte	0x0
 876 00f8 05        		.uleb128 0x5
 877 00f9 02        		.byte	0x2
 878 00fa 0000 0000 		.long	.LM20
 879 00fe 1A        		.byte	0x1a
 880 00ff 00        		.byte	0x0
 881 0100 05        		.uleb128 0x5
 882 0101 02        		.byte	0x2
 883 0102 0000 0000 		.long	.LM21
 884 0106 0E        		.byte	0xe
 885 0107 00        		.byte	0x0
 886 0108 05        		.uleb128 0x5
 887 0109 02        		.byte	0x2
 888 010a 0000 0000 		.long	.LM22
 889 010e 16        		.byte	0x16
 890 010f 00        		.byte	0x0
 891 0110 05        		.uleb128 0x5
 892 0111 02        		.byte	0x2
 893 0112 0000 0000 		.long	.LM23
GAS LISTING C:\users\mohammadreza\Temp/ccjhlJad.s 			page 17


 894 0116 11        		.byte	0x11
 895 0117 00        		.byte	0x0
 896 0118 05        		.uleb128 0x5
 897 0119 02        		.byte	0x2
 898 011a 0000 0000 		.long	.LM24
 899 011e 15        		.byte	0x15
 900 011f 00        		.byte	0x0
 901 0120 05        		.uleb128 0x5
 902 0121 02        		.byte	0x2
 903 0122 0000 0000 		.long	.LM25
 904 0126 15        		.byte	0x15
 905 0127 00        		.byte	0x0
 906 0128 05        		.uleb128 0x5
 907 0129 02        		.byte	0x2
 908 012a 0000 0000 		.long	.LM26
 909 012e 19        		.byte	0x19
 910 012f 00        		.byte	0x0
 911 0130 05        		.uleb128 0x5
 912 0131 02        		.byte	0x2
 913 0132 0000 0000 		.long	.Letext0
 914 0136 00        		.byte	0x0
 915 0137 01        		.uleb128 0x1
 916 0138 01        		.byte	0x1
 917               	.LELT0:
 918 0139 1600 0000 		.section	.debug_str,"MS",@progbits,1
 918      0200 1000 
 918      0000 0101 
 918      FB0E 0A00 
 918      0101 0101 
 919               	.LASF11:
 920 0000 6865 785F 		.string	"hex_in"
 920      696E 00
 921               	.LASF0:
 922 0007 756E 7369 		.string	"unsigned char"
 922      676E 6564 
 922      2063 6861 
 922      7200 
 923               	.LASF14:
 924 0015 6362 7974 		.string	"cbyte"
 924      6500 
 925               	.LASF7:
 926 001b 6C6F 6E67 		.string	"long unsigned int"
 926      2075 6E73 
 926      6967 6E65 
 926      6420 696E 
 926      7400 
 927               	.LASF19:
 928 002d 5A3A 5C68 		.ascii	"Z:\\ho"
 928      6F
 929 0032 6D65 5C6D 		.string	"me\\mohammadreza\\temo\\Simple-AVR-OS-plus-some-improvement-\\avr_os"
 929      6F68 616D 
 929      6D61 6472 
 929      657A 615C 
 929      7465 6D6F 
 930               	.LASF13:
 931 0073 6461 7461 		.string	"data"
 931      00
GAS LISTING C:\users\mohammadreza\Temp/ccjhlJad.s 			page 18


 932               	.LASF16:
 933 0078 665F 4865 		.string	"f_HexBinByte"
 933      7842 696E 
 933      4279 7465 
 933      00
 934               	.LASF18:
 935 0085 7372 632F 		.string	"src/Utils/typeconv.c"
 935      5574 696C 
 935      732F 7479 
 935      7065 636F 
 935      6E76 2E63 
 936               	.LASF1:
 937 009a 6368 6172 		.string	"char"
 937      00
 938               	.LASF8:
 939 009f 6C6F 6E67 		.string	"long int"
 939      2069 6E74 
 939      00
 940               	.LASF15:
 941 00a8 665F 4865 		.string	"f_HexBin"
 941      7842 696E 
 941      00
 942               	.LASF3:
 943 00b1 7368 6F72 		.string	"short int"
 943      7420 696E 
 943      7400 
 944               	.LASF2:
 945 00bb 7368 6F72 		.string	"short unsigned int"
 945      7420 756E 
 945      7369 676E 
 945      6564 2069 
 945      6E74 00
 946               	.LASF10:
 947 00ce 7374 725F 		.string	"str_out"
 947      6F75 7400 
 948               	.LASF6:
 949 00d6 494E 5431 		.string	"INT16U"
 949      3655 00
 950               	.LASF5:
 951 00dd 494E 5438 		.string	"INT8"
 951      00
 952               	.LASF17:
 953 00e2 474E 5520 		.string	"GNU C 4.3.3"
 953      4320 342E 
 953      332E 3300 
 954               	.LASF9:
 955 00ee 6269 6E5F 		.string	"bin_in"
 955      696E 00
 956               	.LASF12:
 957 00f5 6C75 745F 		.string	"lut_Hex"
 957      4865 7800 
 958               	.LASF20:
 959 00fd 665F 4269 		.string	"f_BinHex"
 959      6E48 6578 
 959      00
 960               	.LASF4:
 961 0106 494E 5438 		.string	"INT8U"
GAS LISTING C:\users\mohammadreza\Temp/ccjhlJad.s 			page 19


 961      5500 
 962               	.global __do_copy_data
GAS LISTING C:\users\mohammadreza\Temp/ccjhlJad.s 			page 20


DEFINED SYMBOLS
                            *ABS*:00000000 typeconv.c
C:\users\mohammadreza\Temp/ccjhlJad.s:2      *ABS*:0000003f __SREG__
C:\users\mohammadreza\Temp/ccjhlJad.s:3      *ABS*:0000003e __SP_H__
C:\users\mohammadreza\Temp/ccjhlJad.s:4      *ABS*:0000003d __SP_L__
C:\users\mohammadreza\Temp/ccjhlJad.s:5      *ABS*:00000034 __CCP__
C:\users\mohammadreza\Temp/ccjhlJad.s:6      *ABS*:00000000 __tmp_reg__
C:\users\mohammadreza\Temp/ccjhlJad.s:7      *ABS*:00000001 __zero_reg__
C:\users\mohammadreza\Temp/ccjhlJad.s:18     .text:00000000 f_BinHex
C:\users\mohammadreza\Temp/ccjhlJad.s:177    .data:00000000 lut_Hex.1193
C:\users\mohammadreza\Temp/ccjhlJad.s:51     .text:00000022 f_HexBin
C:\users\mohammadreza\Temp/ccjhlJad.s:113    .text:00000060 f_HexBinByte

UNDEFINED SYMBOLS
__do_copy_data
