GAS LISTING C:\users\mohammadreza\Temp/ccZDXPJx.s 			page 1


   1               		.file	"Uart.c"
   2               	__SREG__ = 0x3f
   3               	__SP_H__ = 0x3e
   4               	__SP_L__ = 0x3d
   5               	__CCP__  = 0x34
   6               	__tmp_reg__ = 0
   7               	__zero_reg__ = 1
   8               		.section	.debug_abbrev,"",@progbits
   9               	.Ldebug_abbrev0:
  10               		.section	.debug_info,"",@progbits
  11               	.Ldebug_info0:
  12               		.section	.debug_line,"",@progbits
  13               	.Ldebug_line0:
  14               		.text
  15               	.Ltext0:
  16               	.global	f_ConfigSerial
  17               		.type	f_ConfigSerial, @function
  18               	f_ConfigSerial:
  19               	.LFB2:
  20               	.LM1:
  21               	/* prologue: function */
  22               	/* frame size = 0 */
  23               	.LM2:
  24 0000 10BC      		out 64-32,__zero_reg__
  25               	.LM3:
  26 0002 89E1      		ldi r24,lo8(25)
  27 0004 89B9      		out 41-32,r24
  28               	.LM4:
  29 0006 1BB8      		out 43-32,__zero_reg__
  30               	.LM5:
  31 0008 88E9      		ldi r24,lo8(-104)
  32 000a 8AB9      		out 42-32,r24
  33               	.LM6:
  34 000c 86E0      		ldi r24,lo8(6)
  35 000e 80BD      		out 64-32,r24
  36               	.LM7:
  37 0010 80E0      		ldi r24,lo8(buf_uart_tx)
  38 0012 90E0      		ldi r25,hi8(buf_uart_tx)
  39 0014 9093 0000 		sts (p_uart_txout)+1,r25
  40 0018 8093 0000 		sts p_uart_txout,r24
  41 001c 9093 0000 		sts (p_uart_txin)+1,r25
  42 0020 8093 0000 		sts p_uart_txin,r24
  43               	.LM8:
  44 0024 80E0      		ldi r24,lo8(buf_uart_rx)
  45 0026 90E0      		ldi r25,hi8(buf_uart_rx)
  46 0028 9093 0000 		sts (p_uart_rxout)+1,r25
  47 002c 8093 0000 		sts p_uart_rxout,r24
  48 0030 9093 0000 		sts (p_uart_rxin)+1,r25
  49 0034 8093 0000 		sts p_uart_rxin,r24
  50               	.LM9:
  51 0038 1092 0000 		sts v_uart_txbuf_cnt,__zero_reg__
  52               	.LM10:
  53 003c 1092 0000 		sts v_uart_rxbuf_cnt,__zero_reg__
  54               	/* epilogue start */
  55               	.LM11:
  56 0040 0895      		ret
  57               	.LFE2:
GAS LISTING C:\users\mohammadreza\Temp/ccZDXPJx.s 			page 2


  58               		.size	f_ConfigSerial, .-f_ConfigSerial
  59               	.global	__vector_12
  60               		.type	__vector_12, @function
  61               	__vector_12:
  62               	.LFB3:
  63               	.LM12:
  64 0042 1F92      		push __zero_reg__
  65 0044 0F92      		push r0
  66 0046 0FB6      		in r0,__SREG__
  67 0048 0F92      		push r0
  68 004a 1124      		clr __zero_reg__
  69 004c 8F93      		push r24
  70 004e 9F93      		push r25
  71 0050 EF93      		push r30
  72 0052 FF93      		push r31
  73               	/* prologue: Signal */
  74               	/* frame size = 0 */
  75               	.LM13:
  76 0054 8091 0000 		lds r24,v_uart_txbuf_cnt
  77 0058 8823      		tst r24
  78 005a 01F0      		breq .L6
  79               	.LM14:
  80 005c E091 0000 		lds r30,p_uart_txout
  81 0060 F091 0000 		lds r31,(p_uart_txout)+1
  82 0064 8191      		ld r24,Z+
  83 0066 8CB9      		out 44-32,r24
  84               	.LM15:
  85 0068 F093 0000 		sts (p_uart_txout)+1,r31
  86 006c E093 0000 		sts p_uart_txout,r30
  87 0070 E050      		subi r30,lo8(buf_uart_tx+64)
  88 0072 F040      		sbci r31,hi8(buf_uart_tx+64)
  89 0074 00F0      		brlo .L5
  90               	.LM16:
  91 0076 80E0      		ldi r24,lo8(buf_uart_tx)
  92 0078 90E0      		ldi r25,hi8(buf_uart_tx)
  93 007a 9093 0000 		sts (p_uart_txout)+1,r25
  94 007e 8093 0000 		sts p_uart_txout,r24
  95               	.L5:
  96               	.LM17:
  97 0082 8091 0000 		lds r24,v_uart_txbuf_cnt
  98 0086 8150      		subi r24,lo8(-(-1))
  99 0088 8093 0000 		sts v_uart_txbuf_cnt,r24
 100 008c 8091 0000 		lds r24,v_uart_txbuf_cnt
 101 0090 8823      		tst r24
 102 0092 01F4      		brne .L6
 103               	.LM18:
 104 0094 5598      		cbi 42-32,5
 105               	.L6:
 106               	/* epilogue start */
 107               	.LM19:
 108 0096 FF91      		pop r31
 109 0098 EF91      		pop r30
 110 009a 9F91      		pop r25
 111 009c 8F91      		pop r24
 112 009e 0F90      		pop r0
 113 00a0 0FBE      		out __SREG__,r0
 114 00a2 0F90      		pop r0
GAS LISTING C:\users\mohammadreza\Temp/ccZDXPJx.s 			page 3


 115 00a4 1F90      		pop __zero_reg__
 116 00a6 1895      		reti
 117               	.LFE3:
 118               		.size	__vector_12, .-__vector_12
 119               	.global	__vector_11
 120               		.type	__vector_11, @function
 121               	__vector_11:
 122               	.LFB4:
 123               	.LM20:
 124 00a8 1F92      		push __zero_reg__
 125 00aa 0F92      		push r0
 126 00ac 0FB6      		in r0,__SREG__
 127 00ae 0F92      		push r0
 128 00b0 1124      		clr __zero_reg__
 129 00b2 2F93      		push r18
 130 00b4 8F93      		push r24
 131 00b6 9F93      		push r25
 132 00b8 EF93      		push r30
 133 00ba FF93      		push r31
 134               	/* prologue: Signal */
 135               	/* frame size = 0 */
 136               	.LM21:
 137 00bc 8CB1      		in r24,44-32
 138 00be E091 0000 		lds r30,p_uart_rxin
 139 00c2 F091 0000 		lds r31,(p_uart_rxin)+1
 140 00c6 8083      		st Z,r24
 141               	.LM22:
 142 00c8 8091 0000 		lds r24,v_uart_rxbuf_cnt
 143 00cc 8F5F      		subi r24,lo8(-(1))
 144 00ce 8093 0000 		sts v_uart_rxbuf_cnt,r24
 145               	.LM23:
 146 00d2 8091 0000 		lds r24,p_uart_rxin
 147 00d6 9091 0000 		lds r25,(p_uart_rxin)+1
 148 00da 0196      		adiw r24,1
 149 00dc 9093 0000 		sts (p_uart_rxin)+1,r25
 150 00e0 8093 0000 		sts p_uart_rxin,r24
 151 00e4 8050      		subi r24,lo8(buf_uart_rx+16)
 152 00e6 9040      		sbci r25,hi8(buf_uart_rx+16)
 153 00e8 00F0      		brlo .L10
 154               	.LM24:
 155 00ea 80E0      		ldi r24,lo8(buf_uart_rx)
 156 00ec 90E0      		ldi r25,hi8(buf_uart_rx)
 157 00ee 9093 0000 		sts (p_uart_rxin)+1,r25
 158 00f2 8093 0000 		sts p_uart_rxin,r24
 159               	.L10:
 160               	/* epilogue start */
 161               	.LM25:
 162 00f6 FF91      		pop r31
 163 00f8 EF91      		pop r30
 164 00fa 9F91      		pop r25
 165 00fc 8F91      		pop r24
 166 00fe 2F91      		pop r18
 167 0100 0F90      		pop r0
 168 0102 0FBE      		out __SREG__,r0
 169 0104 0F90      		pop r0
 170 0106 1F90      		pop __zero_reg__
 171 0108 1895      		reti
GAS LISTING C:\users\mohammadreza\Temp/ccZDXPJx.s 			page 4


 172               	.LFE4:
 173               		.size	__vector_11, .-__vector_11
 174               	.global	f_Uart_GetChar
 175               		.type	f_Uart_GetChar, @function
 176               	f_Uart_GetChar:
 177               	.LFB5:
 178               	.LM26:
 179               	/* prologue: function */
 180               	/* frame size = 0 */
 181               	.LM27:
 182 010a 8091 0000 		lds r24,v_uart_rxbuf_cnt
 183 010e 8823      		tst r24
 184 0110 01F0      		breq .L16
 185               	.LM28:
 186               	/* #APP */
 187               	 ;  182 "src/periphint/Uart.c" 1
 188 0112 F894      		cli
 189               	 ;  0 "" 2
 190               	.LM29:
 191               	/* #NOAPP */
 192 0114 8091 0000 		lds r24,v_uart_rxbuf_cnt
 193 0118 8150      		subi r24,lo8(-(-1))
 194 011a 8093 0000 		sts v_uart_rxbuf_cnt,r24
 195               	.LM30:
 196 011e E091 0000 		lds r30,p_uart_rxout
 197 0122 F091 0000 		lds r31,(p_uart_rxout)+1
 198 0126 2191      		ld r18,Z+
 199               	.LM31:
 200 0128 F093 0000 		sts (p_uart_rxout)+1,r31
 201 012c E093 0000 		sts p_uart_rxout,r30
 202 0130 E050      		subi r30,lo8(buf_uart_rx+16)
 203 0132 F040      		sbci r31,hi8(buf_uart_rx+16)
 204 0134 00F4      		brsh .L17
 205               	.L14:
 206               	.LM32:
 207               	/* #APP */
 208               	 ;  187 "src/periphint/Uart.c" 1
 209 0136 7894      		sei
 210               	 ;  0 "" 2
 211               	.LM33:
 212               	/* #NOAPP */
 213 0138 30E0      		ldi r19,lo8(0)
 214               	.LM34:
 215 013a C901      		movw r24,r18
 216               	/* epilogue start */
 217 013c 0895      		ret
 218               	.L17:
 219               	.LM35:
 220 013e 80E0      		ldi r24,lo8(buf_uart_rx)
 221 0140 90E0      		ldi r25,hi8(buf_uart_rx)
 222 0142 9093 0000 		sts (p_uart_rxout)+1,r25
 223 0146 8093 0000 		sts p_uart_rxout,r24
 224 014a 00C0      		rjmp .L14
 225               	.L16:
 226               	.LM36:
 227 014c 2FEF      		ldi r18,lo8(-1)
 228 014e 3FEF      		ldi r19,hi8(-1)
GAS LISTING C:\users\mohammadreza\Temp/ccZDXPJx.s 			page 5


 229               	.LM37:
 230 0150 C901      		movw r24,r18
 231 0152 0895      		ret
 232               	.LFE5:
 233               		.size	f_Uart_GetChar, .-f_Uart_GetChar
 234               	.global	f_Uart_PutChar
 235               		.type	f_Uart_PutChar, @function
 236               	f_Uart_PutChar:
 237               	.LFB6:
 238               	.LM38:
 239               	.LVL0:
 240               	/* prologue: function */
 241               	/* frame size = 0 */
 242 0154 982F      		mov r25,r24
 243               	.LM39:
 244 0156 8091 0000 		lds r24,v_uart_txbuf_cnt
 245               	.LVL1:
 246 015a 8034      		cpi r24,lo8(64)
 247 015c 00F4      		brsh .L23
 248               	.LM40:
 249               	/* #APP */
 250               	 ;  207 "src/periphint/Uart.c" 1
 251 015e F894      		cli
 252               	 ;  0 "" 2
 253               	.LM41:
 254               	/* #NOAPP */
 255 0160 8091 0000 		lds r24,v_uart_txbuf_cnt
 256 0164 8F5F      		subi r24,lo8(-(1))
 257 0166 8093 0000 		sts v_uart_txbuf_cnt,r24
 258               	.LM42:
 259 016a E091 0000 		lds r30,p_uart_txin
 260 016e F091 0000 		lds r31,(p_uart_txin)+1
 261 0172 9083      		st Z,r25
 262               	.LM43:
 263 0174 8091 0000 		lds r24,p_uart_txin
 264 0178 9091 0000 		lds r25,(p_uart_txin)+1
 265 017c 0196      		adiw r24,1
 266 017e 9093 0000 		sts (p_uart_txin)+1,r25
 267 0182 8093 0000 		sts p_uart_txin,r24
 268 0186 8050      		subi r24,lo8(buf_uart_tx+64)
 269 0188 9040      		sbci r25,hi8(buf_uart_tx+64)
 270 018a 00F0      		brlo .L21
 271               	.LM44:
 272 018c 80E0      		ldi r24,lo8(buf_uart_tx)
 273 018e 90E0      		ldi r25,hi8(buf_uart_tx)
 274 0190 9093 0000 		sts (p_uart_txin)+1,r25
 275 0194 8093 0000 		sts p_uart_txin,r24
 276               	.L21:
 277               	.LM45:
 278 0198 559A      		sbi 42-32,5
 279               	.LM46:
 280               	/* #APP */
 281               	 ;  224 "src/periphint/Uart.c" 1
 282 019a 7894      		sei
 283               	 ;  0 "" 2
 284               	/* #NOAPP */
 285 019c 81E0      		ldi r24,lo8(1)
GAS LISTING C:\users\mohammadreza\Temp/ccZDXPJx.s 			page 6


 286               	.LM47:
 287 019e 0895      		ret
 288               	.L23:
 289               	.LM48:
 290 01a0 80E0      		ldi r24,lo8(0)
 291 01a2 0895      		ret
 292               	.LFE6:
 293               		.size	f_Uart_PutChar, .-f_Uart_PutChar
 294               	.global	f_Uart_PutStr
 295               		.type	f_Uart_PutStr, @function
 296               	f_Uart_PutStr:
 297               	.LFB7:
 298               	.LM49:
 299               	.LVL2:
 300 01a4 CF93      		push r28
 301 01a6 DF93      		push r29
 302               	/* prologue: function */
 303               	/* frame size = 0 */
 304               	.LM50:
 305 01a8 EC01      		movw r28,r24
 306               	.LVL3:
 307               	.L30:
 308               	.LM51:
 309 01aa 8881      		ld r24,Y
 310               	.LVL4:
 311 01ac 8823      		tst r24
 312 01ae 01F0      		breq .L31
 313               	.L26:
 314               	.LM52:
 315 01b0 0E94 0000 		call f_Uart_PutChar
 316 01b4 8823      		tst r24
 317 01b6 01F0      		breq .L30
 318               	.LM53:
 319 01b8 2196      		adiw r28,1
 320               	.LM54:
 321 01ba 8881      		ld r24,Y
 322 01bc 8823      		tst r24
 323 01be 01F4      		brne .L26
 324               	.L31:
 325               	.LM55:
 326 01c0 81E0      		ldi r24,lo8(1)
 327               	/* epilogue start */
 328 01c2 DF91      		pop r29
 329 01c4 CF91      		pop r28
 330               	.LVL5:
 331 01c6 0895      		ret
 332               	.LFE7:
 333               		.size	f_Uart_PutStr, .-f_Uart_PutStr
 334               	.global	f_Uart_ClrScr
 335               		.type	f_Uart_ClrScr, @function
 336               	f_Uart_ClrScr:
 337               	.LFB8:
 338               	.LM56:
 339               	/* prologue: function */
 340               	/* frame size = 0 */
 341               	.LM57:
 342 01c8 80E0      		ldi r24,lo8(UART_CLR)
GAS LISTING C:\users\mohammadreza\Temp/ccZDXPJx.s 			page 7


 343 01ca 90E0      		ldi r25,hi8(UART_CLR)
 344 01cc 0E94 0000 		call f_Uart_PutStr
 345               	/* epilogue start */
 346               	.LM58:
 347 01d0 0895      		ret
 348               	.LFE8:
 349               		.size	f_Uart_ClrScr, .-f_Uart_ClrScr
 350               	.global	f_Uart_NL
 351               		.type	f_Uart_NL, @function
 352               	f_Uart_NL:
 353               	.LFB9:
 354               	.LM59:
 355               	/* prologue: function */
 356               	/* frame size = 0 */
 357               	.LM60:
 358 01d2 80E0      		ldi r24,lo8(UART_NL)
 359 01d4 90E0      		ldi r25,hi8(UART_NL)
 360 01d6 0E94 0000 		call f_Uart_PutStr
 361               	/* epilogue start */
 362               	.LM61:
 363 01da 0895      		ret
 364               	.LFE9:
 365               		.size	f_Uart_NL, .-f_Uart_NL
 366               	.global	UART_CLR
 367               		.data
 368               		.type	UART_CLR, @object
 369               		.size	UART_CLR, 8
 370               	UART_CLR:
 371 0000 1B        		.byte	27
 372 0001 5B        		.byte	91
 373 0002 48        		.byte	72
 374 0003 1B        		.byte	27
 375 0004 5B        		.byte	91
 376 0005 32        		.byte	50
 377 0006 4A        		.byte	74
 378 0007 00        		.byte	0
 379               	.global	UART_NL
 380               		.type	UART_NL, @object
 381               		.size	UART_NL, 3
 382               	UART_NL:
 383 0008 0D        		.byte	13
 384 0009 0A        		.byte	10
 385 000a 00        		.byte	0
 386               		.comm v_uart_txbuf_cnt,1,1
 387               		.comm v_uart_rxbuf_cnt,1,1
 388               		.comm p_uart_txin,2,1
 389               		.comm p_uart_txout,2,1
 390               		.comm p_uart_rxin,2,1
 391               		.comm p_uart_rxout,2,1
 392               		.comm buf_uart_tx,64,1
 393               		.comm buf_uart_rx,16,1
 394               		.section	.debug_frame,"",@progbits
 395               	.Lframe0:
 396 0000 0C00 0000 		.long	.LECIE0-.LSCIE0
 397               	.LSCIE0:
 398 0004 FFFF FFFF 		.long	0xffffffff
 399 0008 01        		.byte	0x1
GAS LISTING C:\users\mohammadreza\Temp/ccZDXPJx.s 			page 8


 400 0009 00        		.string	""
 401 000a 01        		.uleb128 0x1
 402 000b 7F        		.sleb128 -1
 403 000c 24        		.byte	0x24
 404 000d 0C        		.byte	0xc
 405 000e 20        		.uleb128 0x20
 406 000f 00        		.uleb128 0x0
 407               		.p2align	2
 408               	.LECIE0:
 409               	.LSFDE0:
 410 0010 0C00 0000 		.long	.LEFDE0-.LASFDE0
 411               	.LASFDE0:
 412 0014 0000 0000 		.long	.Lframe0
 413 0018 0000 0000 		.long	.LFB2
 414 001c 4200 0000 		.long	.LFE2-.LFB2
 415               		.p2align	2
 416               	.LEFDE0:
 417               	.LSFDE2:
 418 0020 0C00 0000 		.long	.LEFDE2-.LASFDE2
 419               	.LASFDE2:
 420 0024 0000 0000 		.long	.Lframe0
 421 0028 0000 0000 		.long	.LFB3
 422 002c 6600 0000 		.long	.LFE3-.LFB3
 423               		.p2align	2
 424               	.LEFDE2:
 425               	.LSFDE4:
 426 0030 0C00 0000 		.long	.LEFDE4-.LASFDE4
 427               	.LASFDE4:
 428 0034 0000 0000 		.long	.Lframe0
 429 0038 0000 0000 		.long	.LFB4
 430 003c 6200 0000 		.long	.LFE4-.LFB4
 431               		.p2align	2
 432               	.LEFDE4:
 433               	.LSFDE6:
 434 0040 0C00 0000 		.long	.LEFDE6-.LASFDE6
 435               	.LASFDE6:
 436 0044 0000 0000 		.long	.Lframe0
 437 0048 0000 0000 		.long	.LFB5
 438 004c 4A00 0000 		.long	.LFE5-.LFB5
 439               		.p2align	2
 440               	.LEFDE6:
 441               	.LSFDE8:
 442 0050 0C00 0000 		.long	.LEFDE8-.LASFDE8
 443               	.LASFDE8:
 444 0054 0000 0000 		.long	.Lframe0
 445 0058 0000 0000 		.long	.LFB6
 446 005c 5000 0000 		.long	.LFE6-.LFB6
 447               		.p2align	2
 448               	.LEFDE8:
 449               	.LSFDE10:
 450 0060 0C00 0000 		.long	.LEFDE10-.LASFDE10
 451               	.LASFDE10:
 452 0064 0000 0000 		.long	.Lframe0
 453 0068 0000 0000 		.long	.LFB7
 454 006c 2400 0000 		.long	.LFE7-.LFB7
 455               		.p2align	2
 456               	.LEFDE10:
GAS LISTING C:\users\mohammadreza\Temp/ccZDXPJx.s 			page 9


 457               	.LSFDE12:
 458 0070 0C00 0000 		.long	.LEFDE12-.LASFDE12
 459               	.LASFDE12:
 460 0074 0000 0000 		.long	.Lframe0
 461 0078 0000 0000 		.long	.LFB8
 462 007c 0A00 0000 		.long	.LFE8-.LFB8
 463               		.p2align	2
 464               	.LEFDE12:
 465               	.LSFDE14:
 466 0080 0C00 0000 		.long	.LEFDE14-.LASFDE14
 467               	.LASFDE14:
 468 0084 0000 0000 		.long	.Lframe0
 469 0088 0000 0000 		.long	.LFB9
 470 008c 0A00 0000 		.long	.LFE9-.LFB9
 471               		.p2align	2
 472               	.LEFDE14:
 473               		.text
 474               	.Letext0:
 475               		.section	.debug_loc,"",@progbits
 476               	.Ldebug_loc0:
 477               	.LLST5:
 478 0000 5401 0000 		.long	.LVL0-.Ltext0
 479 0004 5A01 0000 		.long	.LVL1-.Ltext0
 480 0008 0100      		.word	0x1
 481 000a 68        		.byte	0x68
 482 000b 5A01 0000 		.long	.LVL1-.Ltext0
 483 000f A401 0000 		.long	.LFE6-.Ltext0
 484 0013 0100      		.word	0x1
 485 0015 69        		.byte	0x69
 486 0016 0000 0000 		.long	0x0
 487 001a 0000 0000 		.long	0x0
 488               	.LLST7:
 489 001e A401 0000 		.long	.LVL2-.Ltext0
 490 0022 AC01 0000 		.long	.LVL4-.Ltext0
 491 0026 0600      		.word	0x6
 492 0028 68        		.byte	0x68
 493 0029 93        		.byte	0x93
 494 002a 01        		.uleb128 0x1
 495 002b 69        		.byte	0x69
 496 002c 93        		.byte	0x93
 497 002d 01        		.uleb128 0x1
 498 002e 0000 0000 		.long	0x0
 499 0032 0000 0000 		.long	0x0
 500               	.LLST8:
 501 0036 AA01 0000 		.long	.LVL3-.Ltext0
 502 003a C601 0000 		.long	.LVL5-.Ltext0
 503 003e 0600      		.word	0x6
 504 0040 6C        		.byte	0x6c
 505 0041 93        		.byte	0x93
 506 0042 01        		.uleb128 0x1
 507 0043 6D        		.byte	0x6d
 508 0044 93        		.byte	0x93
 509 0045 01        		.uleb128 0x1
 510 0046 0000 0000 		.long	0x0
 511 004a 0000 0000 		.long	0x0
 512               		.section	.debug_info
 513 0000 9A02 0000 		.long	0x29a
GAS LISTING C:\users\mohammadreza\Temp/ccZDXPJx.s 			page 10


 514 0004 0200      		.word	0x2
 515 0006 0000 0000 		.long	.Ldebug_abbrev0
 516 000a 04        		.byte	0x4
 517 000b 01        		.uleb128 0x1
 518 000c 0000 0000 		.long	.LASF32
 519 0010 01        		.byte	0x1
 520 0011 0000 0000 		.long	.LASF33
 521 0015 0000 0000 		.long	.LASF34
 522 0019 0000 0000 		.long	.Ltext0
 523 001d 0000 0000 		.long	.Letext0
 524 0021 0000 0000 		.long	.Ldebug_line0
 525 0025 02        		.uleb128 0x2
 526 0026 01        		.byte	0x1
 527 0027 06        		.byte	0x6
 528 0028 0000 0000 		.long	.LASF0
 529 002c 02        		.uleb128 0x2
 530 002d 01        		.byte	0x1
 531 002e 08        		.byte	0x8
 532 002f 0000 0000 		.long	.LASF1
 533 0033 03        		.uleb128 0x3
 534 0034 02        		.byte	0x2
 535 0035 05        		.byte	0x5
 536 0036 696E 7400 		.string	"int"
 537 003a 02        		.uleb128 0x2
 538 003b 02        		.byte	0x2
 539 003c 07        		.byte	0x7
 540 003d 0000 0000 		.long	.LASF2
 541 0041 02        		.uleb128 0x2
 542 0042 04        		.byte	0x4
 543 0043 05        		.byte	0x5
 544 0044 0000 0000 		.long	.LASF3
 545 0048 02        		.uleb128 0x2
 546 0049 04        		.byte	0x4
 547 004a 07        		.byte	0x7
 548 004b 0000 0000 		.long	.LASF4
 549 004f 02        		.uleb128 0x2
 550 0050 08        		.byte	0x8
 551 0051 05        		.byte	0x5
 552 0052 0000 0000 		.long	.LASF5
 553 0056 02        		.uleb128 0x2
 554 0057 08        		.byte	0x8
 555 0058 07        		.byte	0x7
 556 0059 0000 0000 		.long	.LASF6
 557 005d 04        		.uleb128 0x4
 558 005e 7530 3800 		.string	"u08"
 559 0062 02        		.byte	0x2
 560 0063 07        		.byte	0x7
 561 0064 2C00 0000 		.long	0x2c
 562 0068 02        		.uleb128 0x2
 563 0069 01        		.byte	0x1
 564 006a 06        		.byte	0x6
 565 006b 0000 0000 		.long	.LASF7
 566 006f 02        		.uleb128 0x2
 567 0070 02        		.byte	0x2
 568 0071 07        		.byte	0x7
 569 0072 0000 0000 		.long	.LASF8
 570 0076 02        		.uleb128 0x2
GAS LISTING C:\users\mohammadreza\Temp/ccZDXPJx.s 			page 11


 571 0077 02        		.byte	0x2
 572 0078 05        		.byte	0x5
 573 0079 0000 0000 		.long	.LASF9
 574 007d 05        		.uleb128 0x5
 575 007e 0000 0000 		.long	.LASF10
 576 0082 02        		.byte	0x2
 577 0083 0B        		.byte	0xb
 578 0084 5D00 0000 		.long	0x5d
 579 0088 05        		.uleb128 0x5
 580 0089 0000 0000 		.long	.LASF11
 581 008d 02        		.byte	0x2
 582 008e 0D        		.byte	0xd
 583 008f 2C00 0000 		.long	0x2c
 584 0093 05        		.uleb128 0x5
 585 0094 0000 0000 		.long	.LASF12
 586 0098 02        		.byte	0x2
 587 0099 0E        		.byte	0xe
 588 009a 6800 0000 		.long	0x68
 589 009e 05        		.uleb128 0x5
 590 009f 0000 0000 		.long	.LASF13
 591 00a3 02        		.byte	0x2
 592 00a4 10        		.byte	0x10
 593 00a5 7600 0000 		.long	0x76
 594 00a9 06        		.uleb128 0x6
 595 00aa 01        		.byte	0x1
 596 00ab 0000 0000 		.long	.LASF14
 597 00af 01        		.byte	0x1
 598 00b0 3C        		.byte	0x3c
 599 00b1 01        		.byte	0x1
 600 00b2 0000 0000 		.long	.LFB2
 601 00b6 0000 0000 		.long	.LFE2
 602 00ba 02        		.byte	0x2
 603 00bb 90        		.byte	0x90
 604 00bc 20        		.uleb128 0x20
 605 00bd 06        		.uleb128 0x6
 606 00be 01        		.byte	0x1
 607 00bf 0000 0000 		.long	.LASF15
 608 00c3 01        		.byte	0x1
 609 00c4 76        		.byte	0x76
 610 00c5 01        		.byte	0x1
 611 00c6 0000 0000 		.long	.LFB3
 612 00ca 0000 0000 		.long	.LFE3
 613 00ce 02        		.byte	0x2
 614 00cf 90        		.byte	0x90
 615 00d0 20        		.uleb128 0x20
 616 00d1 06        		.uleb128 0x6
 617 00d2 01        		.byte	0x1
 618 00d3 0000 0000 		.long	.LASF16
 619 00d7 01        		.byte	0x1
 620 00d8 9A        		.byte	0x9a
 621 00d9 01        		.byte	0x1
 622 00da 0000 0000 		.long	.LFB4
 623 00de 0000 0000 		.long	.LFE4
 624 00e2 02        		.byte	0x2
 625 00e3 90        		.byte	0x90
 626 00e4 20        		.uleb128 0x20
 627 00e5 07        		.uleb128 0x7
GAS LISTING C:\users\mohammadreza\Temp/ccZDXPJx.s 			page 12


 628 00e6 01        		.byte	0x1
 629 00e7 0000 0000 		.long	.LASF17
 630 00eb 01        		.byte	0x1
 631 00ec B1        		.byte	0xb1
 632 00ed 01        		.byte	0x1
 633 00ee 9E00 0000 		.long	0x9e
 634 00f2 0000 0000 		.long	.LFB5
 635 00f6 0000 0000 		.long	.LFE5
 636 00fa 02        		.byte	0x2
 637 00fb 90        		.byte	0x90
 638 00fc 20        		.uleb128 0x20
 639 00fd 0B01 0000 		.long	0x10b
 640 0101 08        		.uleb128 0x8
 641 0102 6300      		.string	"c"
 642 0104 01        		.byte	0x1
 643 0105 B2        		.byte	0xb2
 644 0106 8800 0000 		.long	0x88
 645 010a 00        		.byte	0x0
 646 010b 07        		.uleb128 0x7
 647 010c 01        		.byte	0x1
 648 010d 0000 0000 		.long	.LASF18
 649 0111 01        		.byte	0x1
 650 0112 CC        		.byte	0xcc
 651 0113 01        		.byte	0x1
 652 0114 7D00 0000 		.long	0x7d
 653 0118 0000 0000 		.long	.LFB6
 654 011c 0000 0000 		.long	.LFE6
 655 0120 02        		.byte	0x2
 656 0121 90        		.byte	0x90
 657 0122 20        		.uleb128 0x20
 658 0123 3501 0000 		.long	0x135
 659 0127 09        		.uleb128 0x9
 660 0128 6300      		.string	"c"
 661 012a 01        		.byte	0x1
 662 012b CB        		.byte	0xcb
 663 012c 9300 0000 		.long	0x93
 664 0130 0000 0000 		.long	.LLST5
 665 0134 00        		.byte	0x0
 666 0135 07        		.uleb128 0x7
 667 0136 01        		.byte	0x1
 668 0137 0000 0000 		.long	.LASF19
 669 013b 01        		.byte	0x1
 670 013c F3        		.byte	0xf3
 671 013d 01        		.byte	0x1
 672 013e 7D00 0000 		.long	0x7d
 673 0142 0000 0000 		.long	.LFB7
 674 0146 0000 0000 		.long	.LFE7
 675 014a 02        		.byte	0x2
 676 014b 90        		.byte	0x90
 677 014c 20        		.uleb128 0x20
 678 014d 6C01 0000 		.long	0x16c
 679 0151 09        		.uleb128 0x9
 680 0152 7300      		.string	"s"
 681 0154 01        		.byte	0x1
 682 0155 F2        		.byte	0xf2
 683 0156 6C01 0000 		.long	0x16c
 684 015a 0000 0000 		.long	.LLST7
GAS LISTING C:\users\mohammadreza\Temp/ccZDXPJx.s 			page 13


 685 015e 0A        		.uleb128 0xa
 686 015f 6300      		.string	"c"
 687 0161 01        		.byte	0x1
 688 0162 F4        		.byte	0xf4
 689 0163 7201 0000 		.long	0x172
 690 0167 0000 0000 		.long	.LLST8
 691 016b 00        		.byte	0x0
 692 016c 0B        		.uleb128 0xb
 693 016d 02        		.byte	0x2
 694 016e 9300 0000 		.long	0x93
 695 0172 0B        		.uleb128 0xb
 696 0173 02        		.byte	0x2
 697 0174 6800 0000 		.long	0x68
 698 0178 06        		.uleb128 0x6
 699 0179 01        		.byte	0x1
 700 017a 0000 0000 		.long	.LASF20
 701 017e 01        		.byte	0x1
 702 017f FF        		.byte	0xff
 703 0180 01        		.byte	0x1
 704 0181 0000 0000 		.long	.LFB8
 705 0185 0000 0000 		.long	.LFE8
 706 0189 02        		.byte	0x2
 707 018a 90        		.byte	0x90
 708 018b 20        		.uleb128 0x20
 709 018c 0C        		.uleb128 0xc
 710 018d 01        		.byte	0x1
 711 018e 0000 0000 		.long	.LASF21
 712 0192 01        		.byte	0x1
 713 0193 0501      		.word	0x105
 714 0195 01        		.byte	0x1
 715 0196 0000 0000 		.long	.LFB9
 716 019a 0000 0000 		.long	.LFE9
 717 019e 02        		.byte	0x2
 718 019f 90        		.byte	0x90
 719 01a0 20        		.uleb128 0x20
 720 01a1 0D        		.uleb128 0xd
 721 01a2 0000 0000 		.long	.LASF22
 722 01a6 01        		.byte	0x1
 723 01a7 26        		.byte	0x26
 724 01a8 B301 0000 		.long	0x1b3
 725 01ac 01        		.byte	0x1
 726 01ad 05        		.byte	0x5
 727 01ae 03        		.byte	0x3
 728 01af 0000 0000 		.long	v_uart_txbuf_cnt
 729 01b3 0E        		.uleb128 0xe
 730 01b4 8800 0000 		.long	0x88
 731 01b8 0D        		.uleb128 0xd
 732 01b9 0000 0000 		.long	.LASF23
 733 01bd 01        		.byte	0x1
 734 01be 27        		.byte	0x27
 735 01bf B301 0000 		.long	0x1b3
 736 01c3 01        		.byte	0x1
 737 01c4 05        		.byte	0x5
 738 01c5 03        		.byte	0x3
 739 01c6 0000 0000 		.long	v_uart_rxbuf_cnt
 740 01ca 0D        		.uleb128 0xd
 741 01cb 0000 0000 		.long	.LASF24
GAS LISTING C:\users\mohammadreza\Temp/ccZDXPJx.s 			page 14


 742 01cf 01        		.byte	0x1
 743 01d0 28        		.byte	0x28
 744 01d1 6C01 0000 		.long	0x16c
 745 01d5 01        		.byte	0x1
 746 01d6 05        		.byte	0x5
 747 01d7 03        		.byte	0x3
 748 01d8 0000 0000 		.long	p_uart_txin
 749 01dc 0D        		.uleb128 0xd
 750 01dd 0000 0000 		.long	.LASF25
 751 01e1 01        		.byte	0x1
 752 01e2 28        		.byte	0x28
 753 01e3 6C01 0000 		.long	0x16c
 754 01e7 01        		.byte	0x1
 755 01e8 05        		.byte	0x5
 756 01e9 03        		.byte	0x3
 757 01ea 0000 0000 		.long	p_uart_txout
 758 01ee 0D        		.uleb128 0xd
 759 01ef 0000 0000 		.long	.LASF26
 760 01f3 01        		.byte	0x1
 761 01f4 29        		.byte	0x29
 762 01f5 6C01 0000 		.long	0x16c
 763 01f9 01        		.byte	0x1
 764 01fa 05        		.byte	0x5
 765 01fb 03        		.byte	0x3
 766 01fc 0000 0000 		.long	p_uart_rxin
 767 0200 0D        		.uleb128 0xd
 768 0201 0000 0000 		.long	.LASF27
 769 0205 01        		.byte	0x1
 770 0206 29        		.byte	0x29
 771 0207 6C01 0000 		.long	0x16c
 772 020b 01        		.byte	0x1
 773 020c 05        		.byte	0x5
 774 020d 03        		.byte	0x3
 775 020e 0000 0000 		.long	p_uart_rxout
 776 0212 0F        		.uleb128 0xf
 777 0213 9300 0000 		.long	0x93
 778 0217 2202 0000 		.long	0x222
 779 021b 10        		.uleb128 0x10
 780 021c 2202 0000 		.long	0x222
 781 0220 07        		.byte	0x7
 782 0221 00        		.byte	0x0
 783 0222 11        		.uleb128 0x11
 784 0223 02        		.byte	0x2
 785 0224 07        		.byte	0x7
 786 0225 0D        		.uleb128 0xd
 787 0226 0000 0000 		.long	.LASF28
 788 022a 01        		.byte	0x1
 789 022b 2A        		.byte	0x2a
 790 022c 1202 0000 		.long	0x212
 791 0230 01        		.byte	0x1
 792 0231 05        		.byte	0x5
 793 0232 03        		.byte	0x3
 794 0233 0000 0000 		.long	UART_CLR
 795 0237 0F        		.uleb128 0xf
 796 0238 9300 0000 		.long	0x93
 797 023c 4702 0000 		.long	0x247
 798 0240 10        		.uleb128 0x10
GAS LISTING C:\users\mohammadreza\Temp/ccZDXPJx.s 			page 15


 799 0241 2202 0000 		.long	0x222
 800 0245 02        		.byte	0x2
 801 0246 00        		.byte	0x0
 802 0247 0D        		.uleb128 0xd
 803 0248 0000 0000 		.long	.LASF29
 804 024c 01        		.byte	0x1
 805 024d 2B        		.byte	0x2b
 806 024e 3702 0000 		.long	0x237
 807 0252 01        		.byte	0x1
 808 0253 05        		.byte	0x5
 809 0254 03        		.byte	0x3
 810 0255 0000 0000 		.long	UART_NL
 811 0259 0F        		.uleb128 0xf
 812 025a 9300 0000 		.long	0x93
 813 025e 6902 0000 		.long	0x269
 814 0262 10        		.uleb128 0x10
 815 0263 2202 0000 		.long	0x222
 816 0267 3F        		.byte	0x3f
 817 0268 00        		.byte	0x0
 818 0269 0D        		.uleb128 0xd
 819 026a 0000 0000 		.long	.LASF30
 820 026e 01        		.byte	0x1
 821 026f 2C        		.byte	0x2c
 822 0270 5902 0000 		.long	0x259
 823 0274 01        		.byte	0x1
 824 0275 05        		.byte	0x5
 825 0276 03        		.byte	0x3
 826 0277 0000 0000 		.long	buf_uart_tx
 827 027b 0F        		.uleb128 0xf
 828 027c 9300 0000 		.long	0x93
 829 0280 8B02 0000 		.long	0x28b
 830 0284 10        		.uleb128 0x10
 831 0285 2202 0000 		.long	0x222
 832 0289 0F        		.byte	0xf
 833 028a 00        		.byte	0x0
 834 028b 0D        		.uleb128 0xd
 835 028c 0000 0000 		.long	.LASF31
 836 0290 01        		.byte	0x1
 837 0291 2D        		.byte	0x2d
 838 0292 7B02 0000 		.long	0x27b
 839 0296 01        		.byte	0x1
 840 0297 05        		.byte	0x5
 841 0298 03        		.byte	0x3
 842 0299 0000 0000 		.long	buf_uart_rx
 843 029d 00        		.byte	0x0
 844               		.section	.debug_abbrev
 845 0000 01        		.uleb128 0x1
 846 0001 11        		.uleb128 0x11
 847 0002 01        		.byte	0x1
 848 0003 25        		.uleb128 0x25
 849 0004 0E        		.uleb128 0xe
 850 0005 13        		.uleb128 0x13
 851 0006 0B        		.uleb128 0xb
 852 0007 03        		.uleb128 0x3
 853 0008 0E        		.uleb128 0xe
 854 0009 1B        		.uleb128 0x1b
 855 000a 0E        		.uleb128 0xe
GAS LISTING C:\users\mohammadreza\Temp/ccZDXPJx.s 			page 16


 856 000b 11        		.uleb128 0x11
 857 000c 01        		.uleb128 0x1
 858 000d 12        		.uleb128 0x12
 859 000e 01        		.uleb128 0x1
 860 000f 10        		.uleb128 0x10
 861 0010 06        		.uleb128 0x6
 862 0011 00        		.byte	0x0
 863 0012 00        		.byte	0x0
 864 0013 02        		.uleb128 0x2
 865 0014 24        		.uleb128 0x24
 866 0015 00        		.byte	0x0
 867 0016 0B        		.uleb128 0xb
 868 0017 0B        		.uleb128 0xb
 869 0018 3E        		.uleb128 0x3e
 870 0019 0B        		.uleb128 0xb
 871 001a 03        		.uleb128 0x3
 872 001b 0E        		.uleb128 0xe
 873 001c 00        		.byte	0x0
 874 001d 00        		.byte	0x0
 875 001e 03        		.uleb128 0x3
 876 001f 24        		.uleb128 0x24
 877 0020 00        		.byte	0x0
 878 0021 0B        		.uleb128 0xb
 879 0022 0B        		.uleb128 0xb
 880 0023 3E        		.uleb128 0x3e
 881 0024 0B        		.uleb128 0xb
 882 0025 03        		.uleb128 0x3
 883 0026 08        		.uleb128 0x8
 884 0027 00        		.byte	0x0
 885 0028 00        		.byte	0x0
 886 0029 04        		.uleb128 0x4
 887 002a 16        		.uleb128 0x16
 888 002b 00        		.byte	0x0
 889 002c 03        		.uleb128 0x3
 890 002d 08        		.uleb128 0x8
 891 002e 3A        		.uleb128 0x3a
 892 002f 0B        		.uleb128 0xb
 893 0030 3B        		.uleb128 0x3b
 894 0031 0B        		.uleb128 0xb
 895 0032 49        		.uleb128 0x49
 896 0033 13        		.uleb128 0x13
 897 0034 00        		.byte	0x0
 898 0035 00        		.byte	0x0
 899 0036 05        		.uleb128 0x5
 900 0037 16        		.uleb128 0x16
 901 0038 00        		.byte	0x0
 902 0039 03        		.uleb128 0x3
 903 003a 0E        		.uleb128 0xe
 904 003b 3A        		.uleb128 0x3a
 905 003c 0B        		.uleb128 0xb
 906 003d 3B        		.uleb128 0x3b
 907 003e 0B        		.uleb128 0xb
 908 003f 49        		.uleb128 0x49
 909 0040 13        		.uleb128 0x13
 910 0041 00        		.byte	0x0
 911 0042 00        		.byte	0x0
 912 0043 06        		.uleb128 0x6
GAS LISTING C:\users\mohammadreza\Temp/ccZDXPJx.s 			page 17


 913 0044 2E        		.uleb128 0x2e
 914 0045 00        		.byte	0x0
 915 0046 3F        		.uleb128 0x3f
 916 0047 0C        		.uleb128 0xc
 917 0048 03        		.uleb128 0x3
 918 0049 0E        		.uleb128 0xe
 919 004a 3A        		.uleb128 0x3a
 920 004b 0B        		.uleb128 0xb
 921 004c 3B        		.uleb128 0x3b
 922 004d 0B        		.uleb128 0xb
 923 004e 27        		.uleb128 0x27
 924 004f 0C        		.uleb128 0xc
 925 0050 11        		.uleb128 0x11
 926 0051 01        		.uleb128 0x1
 927 0052 12        		.uleb128 0x12
 928 0053 01        		.uleb128 0x1
 929 0054 40        		.uleb128 0x40
 930 0055 0A        		.uleb128 0xa
 931 0056 00        		.byte	0x0
 932 0057 00        		.byte	0x0
 933 0058 07        		.uleb128 0x7
 934 0059 2E        		.uleb128 0x2e
 935 005a 01        		.byte	0x1
 936 005b 3F        		.uleb128 0x3f
 937 005c 0C        		.uleb128 0xc
 938 005d 03        		.uleb128 0x3
 939 005e 0E        		.uleb128 0xe
 940 005f 3A        		.uleb128 0x3a
 941 0060 0B        		.uleb128 0xb
 942 0061 3B        		.uleb128 0x3b
 943 0062 0B        		.uleb128 0xb
 944 0063 27        		.uleb128 0x27
 945 0064 0C        		.uleb128 0xc
 946 0065 49        		.uleb128 0x49
 947 0066 13        		.uleb128 0x13
 948 0067 11        		.uleb128 0x11
 949 0068 01        		.uleb128 0x1
 950 0069 12        		.uleb128 0x12
 951 006a 01        		.uleb128 0x1
 952 006b 40        		.uleb128 0x40
 953 006c 0A        		.uleb128 0xa
 954 006d 01        		.uleb128 0x1
 955 006e 13        		.uleb128 0x13
 956 006f 00        		.byte	0x0
 957 0070 00        		.byte	0x0
 958 0071 08        		.uleb128 0x8
 959 0072 34        		.uleb128 0x34
 960 0073 00        		.byte	0x0
 961 0074 03        		.uleb128 0x3
 962 0075 08        		.uleb128 0x8
 963 0076 3A        		.uleb128 0x3a
 964 0077 0B        		.uleb128 0xb
 965 0078 3B        		.uleb128 0x3b
 966 0079 0B        		.uleb128 0xb
 967 007a 49        		.uleb128 0x49
 968 007b 13        		.uleb128 0x13
 969 007c 00        		.byte	0x0
GAS LISTING C:\users\mohammadreza\Temp/ccZDXPJx.s 			page 18


 970 007d 00        		.byte	0x0
 971 007e 09        		.uleb128 0x9
 972 007f 05        		.uleb128 0x5
 973 0080 00        		.byte	0x0
 974 0081 03        		.uleb128 0x3
 975 0082 08        		.uleb128 0x8
 976 0083 3A        		.uleb128 0x3a
 977 0084 0B        		.uleb128 0xb
 978 0085 3B        		.uleb128 0x3b
 979 0086 0B        		.uleb128 0xb
 980 0087 49        		.uleb128 0x49
 981 0088 13        		.uleb128 0x13
 982 0089 02        		.uleb128 0x2
 983 008a 06        		.uleb128 0x6
 984 008b 00        		.byte	0x0
 985 008c 00        		.byte	0x0
 986 008d 0A        		.uleb128 0xa
 987 008e 34        		.uleb128 0x34
 988 008f 00        		.byte	0x0
 989 0090 03        		.uleb128 0x3
 990 0091 08        		.uleb128 0x8
 991 0092 3A        		.uleb128 0x3a
 992 0093 0B        		.uleb128 0xb
 993 0094 3B        		.uleb128 0x3b
 994 0095 0B        		.uleb128 0xb
 995 0096 49        		.uleb128 0x49
 996 0097 13        		.uleb128 0x13
 997 0098 02        		.uleb128 0x2
 998 0099 06        		.uleb128 0x6
 999 009a 00        		.byte	0x0
 1000 009b 00        		.byte	0x0
 1001 009c 0B        		.uleb128 0xb
 1002 009d 0F        		.uleb128 0xf
 1003 009e 00        		.byte	0x0
 1004 009f 0B        		.uleb128 0xb
 1005 00a0 0B        		.uleb128 0xb
 1006 00a1 49        		.uleb128 0x49
 1007 00a2 13        		.uleb128 0x13
 1008 00a3 00        		.byte	0x0
 1009 00a4 00        		.byte	0x0
 1010 00a5 0C        		.uleb128 0xc
 1011 00a6 2E        		.uleb128 0x2e
 1012 00a7 00        		.byte	0x0
 1013 00a8 3F        		.uleb128 0x3f
 1014 00a9 0C        		.uleb128 0xc
 1015 00aa 03        		.uleb128 0x3
 1016 00ab 0E        		.uleb128 0xe
 1017 00ac 3A        		.uleb128 0x3a
 1018 00ad 0B        		.uleb128 0xb
 1019 00ae 3B        		.uleb128 0x3b
 1020 00af 05        		.uleb128 0x5
 1021 00b0 27        		.uleb128 0x27
 1022 00b1 0C        		.uleb128 0xc
 1023 00b2 11        		.uleb128 0x11
 1024 00b3 01        		.uleb128 0x1
 1025 00b4 12        		.uleb128 0x12
 1026 00b5 01        		.uleb128 0x1
GAS LISTING C:\users\mohammadreza\Temp/ccZDXPJx.s 			page 19


 1027 00b6 40        		.uleb128 0x40
 1028 00b7 0A        		.uleb128 0xa
 1029 00b8 00        		.byte	0x0
 1030 00b9 00        		.byte	0x0
 1031 00ba 0D        		.uleb128 0xd
 1032 00bb 34        		.uleb128 0x34
 1033 00bc 00        		.byte	0x0
 1034 00bd 03        		.uleb128 0x3
 1035 00be 0E        		.uleb128 0xe
 1036 00bf 3A        		.uleb128 0x3a
 1037 00c0 0B        		.uleb128 0xb
 1038 00c1 3B        		.uleb128 0x3b
 1039 00c2 0B        		.uleb128 0xb
 1040 00c3 49        		.uleb128 0x49
 1041 00c4 13        		.uleb128 0x13
 1042 00c5 3F        		.uleb128 0x3f
 1043 00c6 0C        		.uleb128 0xc
 1044 00c7 02        		.uleb128 0x2
 1045 00c8 0A        		.uleb128 0xa
 1046 00c9 00        		.byte	0x0
 1047 00ca 00        		.byte	0x0
 1048 00cb 0E        		.uleb128 0xe
 1049 00cc 35        		.uleb128 0x35
 1050 00cd 00        		.byte	0x0
 1051 00ce 49        		.uleb128 0x49
 1052 00cf 13        		.uleb128 0x13
 1053 00d0 00        		.byte	0x0
 1054 00d1 00        		.byte	0x0
 1055 00d2 0F        		.uleb128 0xf
 1056 00d3 01        		.uleb128 0x1
 1057 00d4 01        		.byte	0x1
 1058 00d5 49        		.uleb128 0x49
 1059 00d6 13        		.uleb128 0x13
 1060 00d7 01        		.uleb128 0x1
 1061 00d8 13        		.uleb128 0x13
 1062 00d9 00        		.byte	0x0
 1063 00da 00        		.byte	0x0
 1064 00db 10        		.uleb128 0x10
 1065 00dc 21        		.uleb128 0x21
 1066 00dd 00        		.byte	0x0
 1067 00de 49        		.uleb128 0x49
 1068 00df 13        		.uleb128 0x13
 1069 00e0 2F        		.uleb128 0x2f
 1070 00e1 0B        		.uleb128 0xb
 1071 00e2 00        		.byte	0x0
 1072 00e3 00        		.byte	0x0
 1073 00e4 11        		.uleb128 0x11
 1074 00e5 24        		.uleb128 0x24
 1075 00e6 00        		.byte	0x0
 1076 00e7 0B        		.uleb128 0xb
 1077 00e8 0B        		.uleb128 0xb
 1078 00e9 3E        		.uleb128 0x3e
 1079 00ea 0B        		.uleb128 0xb
 1080 00eb 00        		.byte	0x0
 1081 00ec 00        		.byte	0x0
 1082 00ed 00        		.byte	0x0
 1083               		.section	.debug_pubnames,"",@progbits
GAS LISTING C:\users\mohammadreza\Temp/ccZDXPJx.s 			page 20


 1084 0000 3E01 0000 		.long	0x13e
 1085 0004 0200      		.word	0x2
 1086 0006 0000 0000 		.long	.Ldebug_info0
 1087 000a 9E02 0000 		.long	0x29e
 1088 000e A900 0000 		.long	0xa9
 1089 0012 665F 436F 		.string	"f_ConfigSerial"
 1089      6E66 6967 
 1089      5365 7269 
 1089      616C 00
 1090 0021 BD00 0000 		.long	0xbd
 1091 0025 5F5F 7665 		.string	"__vector_12"
 1091      6374 6F72 
 1091      5F31 3200 
 1092 0031 D100 0000 		.long	0xd1
 1093 0035 5F5F 7665 		.string	"__vector_11"
 1093      6374 6F72 
 1093      5F31 3100 
 1094 0041 E500 0000 		.long	0xe5
 1095 0045 665F 5561 		.string	"f_Uart_GetChar"
 1095      7274 5F47 
 1095      6574 4368 
 1095      6172 00
 1096 0054 0B01 0000 		.long	0x10b
 1097 0058 665F 5561 		.string	"f_Uart_PutChar"
 1097      7274 5F50 
 1097      7574 4368 
 1097      6172 00
 1098 0067 3501 0000 		.long	0x135
 1099 006b 665F 5561 		.string	"f_Uart_PutStr"
 1099      7274 5F50 
 1099      7574 5374 
 1099      7200 
 1100 0079 7801 0000 		.long	0x178
 1101 007d 665F 5561 		.string	"f_Uart_ClrScr"
 1101      7274 5F43 
 1101      6C72 5363 
 1101      7200 
 1102 008b 8C01 0000 		.long	0x18c
 1103 008f 665F 5561 		.string	"f_Uart_NL"
 1103      7274 5F4E 
 1103      4C00 
 1104 0099 A101 0000 		.long	0x1a1
 1105 009d 765F 7561 		.string	"v_uart_txbuf_cnt"
 1105      7274 5F74 
 1105      7862 7566 
 1105      5F63 6E74 
 1105      00
 1106 00ae B801 0000 		.long	0x1b8
 1107 00b2 765F 7561 		.string	"v_uart_rxbuf_cnt"
 1107      7274 5F72 
 1107      7862 7566 
 1107      5F63 6E74 
 1107      00
 1108 00c3 CA01 0000 		.long	0x1ca
 1109 00c7 705F 7561 		.string	"p_uart_txin"
 1109      7274 5F74 
 1109      7869 6E00 
GAS LISTING C:\users\mohammadreza\Temp/ccZDXPJx.s 			page 21


 1110 00d3 DC01 0000 		.long	0x1dc
 1111 00d7 705F 7561 		.string	"p_uart_txout"
 1111      7274 5F74 
 1111      786F 7574 
 1111      00
 1112 00e4 EE01 0000 		.long	0x1ee
 1113 00e8 705F 7561 		.string	"p_uart_rxin"
 1113      7274 5F72 
 1113      7869 6E00 
 1114 00f4 0002 0000 		.long	0x200
 1115 00f8 705F 7561 		.string	"p_uart_rxout"
 1115      7274 5F72 
 1115      786F 7574 
 1115      00
 1116 0105 2502 0000 		.long	0x225
 1117 0109 5541 5254 		.string	"UART_CLR"
 1117      5F43 4C52 
 1117      00
 1118 0112 4702 0000 		.long	0x247
 1119 0116 5541 5254 		.string	"UART_NL"
 1119      5F4E 4C00 
 1120 011e 6902 0000 		.long	0x269
 1121 0122 6275 665F 		.string	"buf_uart_tx"
 1121      7561 7274 
 1121      5F74 7800 
 1122 012e 8B02 0000 		.long	0x28b
 1123 0132 6275 665F 		.string	"buf_uart_rx"
 1123      7561 7274 
 1123      5F72 7800 
 1124 013e 0000 0000 		.long	0x0
 1125               		.section	.debug_aranges,"",@progbits
 1126 0000 1C00 0000 		.long	0x1c
 1127 0004 0200      		.word	0x2
 1128 0006 0000 0000 		.long	.Ldebug_info0
 1129 000a 04        		.byte	0x4
 1130 000b 00        		.byte	0x0
 1131 000c 0000      		.word	0x0
 1132 000e 0000      		.word	0x0
 1133 0010 0000 0000 		.long	.Ltext0
 1134 0014 DC01 0000 		.long	.Letext0-.Ltext0
 1135 0018 0000 0000 		.long	0x0
 1136 001c 0000 0000 		.long	0x0
 1137               		.section	.debug_line
 1138 0000 5302 0000 		.long	.LELT0-.LSLT0
 1139               	.LSLT0:
 1140 0004 0200      		.word	0x2
 1141 0006 5900 0000 		.long	.LELTP0-.LASLTP0
 1142               	.LASLTP0:
 1143 000a 01        		.byte	0x1
 1144 000b 01        		.byte	0x1
 1145 000c F6        		.byte	0xf6
 1146 000d F5        		.byte	0xf5
 1147 000e 0A        		.byte	0xa
 1148 000f 00        		.byte	0x0
 1149 0010 01        		.byte	0x1
 1150 0011 01        		.byte	0x1
 1151 0012 01        		.byte	0x1
GAS LISTING C:\users\mohammadreza\Temp/ccZDXPJx.s 			page 22


 1152 0013 01        		.byte	0x1
 1153 0014 00        		.byte	0x0
 1154 0015 00        		.byte	0x0
 1155 0016 00        		.byte	0x0
 1156 0017 01        		.byte	0x1
 1157 0018 7372 632F 		.ascii	"src/periphint"
 1157      7065 7269 
 1157      7068 696E 
 1157      74
 1158 0025 00        		.byte	0
 1159 0026 7372 632F 		.ascii	"src/periphint/../includes"
 1159      7065 7269 
 1159      7068 696E 
 1159      742F 2E2E 
 1159      2F69 6E63 
 1160 003f 00        		.byte	0
 1161 0040 00        		.byte	0x0
 1162 0041 5561 7274 		.string	"Uart.c"
 1162      2E63 00
 1163 0048 01        		.uleb128 0x1
 1164 0049 00        		.uleb128 0x0
 1165 004a 00        		.uleb128 0x0
 1166 004b 2E2E 2F69 		.string	"../includes/types.h"
 1166      6E63 6C75 
 1166      6465 732F 
 1166      7479 7065 
 1166      732E 6800 
 1167 005f 01        		.uleb128 0x1
 1168 0060 00        		.uleb128 0x0
 1169 0061 00        		.uleb128 0x0
 1170 0062 00        		.byte	0x0
 1171               	.LELTP0:
 1172 0063 00        		.byte	0x0
 1173 0064 05        		.uleb128 0x5
 1174 0065 02        		.byte	0x2
 1175 0066 0000 0000 		.long	.LM1
 1176 006a 4F        		.byte	0x4f
 1177 006b 00        		.byte	0x0
 1178 006c 05        		.uleb128 0x5
 1179 006d 02        		.byte	0x2
 1180 006e 0000 0000 		.long	.LM2
 1181 0072 24        		.byte	0x24
 1182 0073 00        		.byte	0x0
 1183 0074 05        		.uleb128 0x5
 1184 0075 02        		.byte	0x2
 1185 0076 0000 0000 		.long	.LM3
 1186 007a 15        		.byte	0x15
 1187 007b 00        		.byte	0x0
 1188 007c 05        		.uleb128 0x5
 1189 007d 02        		.byte	0x2
 1190 007e 0000 0000 		.long	.LM4
 1191 0082 16        		.byte	0x16
 1192 0083 00        		.byte	0x0
 1193 0084 05        		.uleb128 0x5
 1194 0085 02        		.byte	0x2
 1195 0086 0000 0000 		.long	.LM5
 1196 008a 15        		.byte	0x15
GAS LISTING C:\users\mohammadreza\Temp/ccZDXPJx.s 			page 23


 1197 008b 00        		.byte	0x0
 1198 008c 05        		.uleb128 0x5
 1199 008d 02        		.byte	0x2
 1200 008e 0000 0000 		.long	.LM6
 1201 0092 17        		.byte	0x17
 1202 0093 00        		.byte	0x0
 1203 0094 05        		.uleb128 0x5
 1204 0095 02        		.byte	0x2
 1205 0096 0000 0000 		.long	.LM7
 1206 009a 27        		.byte	0x27
 1207 009b 00        		.byte	0x0
 1208 009c 05        		.uleb128 0x5
 1209 009d 02        		.byte	0x2
 1210 009e 0000 0000 		.long	.LM8
 1211 00a2 15        		.byte	0x15
 1212 00a3 00        		.byte	0x0
 1213 00a4 05        		.uleb128 0x5
 1214 00a5 02        		.byte	0x2
 1215 00a6 0000 0000 		.long	.LM9
 1216 00aa 15        		.byte	0x15
 1217 00ab 00        		.byte	0x0
 1218 00ac 05        		.uleb128 0x5
 1219 00ad 02        		.byte	0x2
 1220 00ae 0000 0000 		.long	.LM10
 1221 00b2 15        		.byte	0x15
 1222 00b3 00        		.byte	0x0
 1223 00b4 05        		.uleb128 0x5
 1224 00b5 02        		.byte	0x2
 1225 00b6 0000 0000 		.long	.LM11
 1226 00ba 15        		.byte	0x15
 1227 00bb 00        		.byte	0x0
 1228 00bc 05        		.uleb128 0x5
 1229 00bd 02        		.byte	0x2
 1230 00be 0000 0000 		.long	.LM12
 1231 00c2 20        		.byte	0x20
 1232 00c3 00        		.byte	0x0
 1233 00c4 05        		.uleb128 0x5
 1234 00c5 02        		.byte	0x2
 1235 00c6 0000 0000 		.long	.LM13
 1236 00ca 15        		.byte	0x15
 1237 00cb 00        		.byte	0x0
 1238 00cc 05        		.uleb128 0x5
 1239 00cd 02        		.byte	0x2
 1240 00ce 0000 0000 		.long	.LM14
 1241 00d2 1A        		.byte	0x1a
 1242 00d3 00        		.byte	0x0
 1243 00d4 05        		.uleb128 0x5
 1244 00d5 02        		.byte	0x2
 1245 00d6 0000 0000 		.long	.LM15
 1246 00da 17        		.byte	0x17
 1247 00db 00        		.byte	0x0
 1248 00dc 05        		.uleb128 0x5
 1249 00dd 02        		.byte	0x2
 1250 00de 0000 0000 		.long	.LM16
 1251 00e2 15        		.byte	0x15
 1252 00e3 00        		.byte	0x0
 1253 00e4 05        		.uleb128 0x5
GAS LISTING C:\users\mohammadreza\Temp/ccZDXPJx.s 			page 24


 1254 00e5 02        		.byte	0x2
 1255 00e6 0000 0000 		.long	.LM17
 1256 00ea 15        		.byte	0x15
 1257 00eb 00        		.byte	0x0
 1258 00ec 05        		.uleb128 0x5
 1259 00ed 02        		.byte	0x2
 1260 00ee 0000 0000 		.long	.LM18
 1261 00f2 1A        		.byte	0x1a
 1262 00f3 00        		.byte	0x0
 1263 00f4 05        		.uleb128 0x5
 1264 00f5 02        		.byte	0x2
 1265 00f6 0000 0000 		.long	.LM19
 1266 00fa 1A        		.byte	0x1a
 1267 00fb 00        		.byte	0x0
 1268 00fc 05        		.uleb128 0x5
 1269 00fd 02        		.byte	0x2
 1270 00fe 0000 0000 		.long	.LM20
 1271 0102 20        		.byte	0x20
 1272 0103 00        		.byte	0x0
 1273 0104 05        		.uleb128 0x5
 1274 0105 02        		.byte	0x2
 1275 0106 0000 0000 		.long	.LM21
 1276 010a 19        		.byte	0x19
 1277 010b 00        		.byte	0x0
 1278 010c 05        		.uleb128 0x5
 1279 010d 02        		.byte	0x2
 1280 010e 0000 0000 		.long	.LM22
 1281 0112 17        		.byte	0x17
 1282 0113 00        		.byte	0x0
 1283 0114 05        		.uleb128 0x5
 1284 0115 02        		.byte	0x2
 1285 0116 0000 0000 		.long	.LM23
 1286 011a 15        		.byte	0x15
 1287 011b 00        		.byte	0x0
 1288 011c 05        		.uleb128 0x5
 1289 011d 02        		.byte	0x2
 1290 011e 0000 0000 		.long	.LM24
 1291 0122 15        		.byte	0x15
 1292 0123 00        		.byte	0x0
 1293 0124 05        		.uleb128 0x5
 1294 0125 02        		.byte	0x2
 1295 0126 0000 0000 		.long	.LM25
 1296 012a 15        		.byte	0x15
 1297 012b 00        		.byte	0x0
 1298 012c 05        		.uleb128 0x5
 1299 012d 02        		.byte	0x2
 1300 012e 0000 0000 		.long	.LM26
 1301 0132 20        		.byte	0x20
 1302 0133 00        		.byte	0x0
 1303 0134 05        		.uleb128 0x5
 1304 0135 02        		.byte	0x2
 1305 0136 0000 0000 		.long	.LM27
 1306 013a 17        		.byte	0x17
 1307 013b 00        		.byte	0x0
 1308 013c 05        		.uleb128 0x5
 1309 013d 02        		.byte	0x2
 1310 013e 0000 0000 		.long	.LM28
GAS LISTING C:\users\mohammadreza\Temp/ccZDXPJx.s 			page 25


 1311 0142 16        		.byte	0x16
 1312 0143 00        		.byte	0x0
 1313 0144 05        		.uleb128 0x5
 1314 0145 02        		.byte	0x2
 1315 0146 0000 0000 		.long	.LM29
 1316 014a 15        		.byte	0x15
 1317 014b 00        		.byte	0x0
 1318 014c 05        		.uleb128 0x5
 1319 014d 02        		.byte	0x2
 1320 014e 0000 0000 		.long	.LM30
 1321 0152 15        		.byte	0x15
 1322 0153 00        		.byte	0x0
 1323 0154 05        		.uleb128 0x5
 1324 0155 02        		.byte	0x2
 1325 0156 0000 0000 		.long	.LM31
 1326 015a 15        		.byte	0x15
 1327 015b 00        		.byte	0x0
 1328 015c 05        		.uleb128 0x5
 1329 015d 02        		.byte	0x2
 1330 015e 0000 0000 		.long	.LM32
 1331 0162 16        		.byte	0x16
 1332 0163 00        		.byte	0x0
 1333 0164 05        		.uleb128 0x5
 1334 0165 02        		.byte	0x2
 1335 0166 0000 0000 		.long	.LM33
 1336 016a 15        		.byte	0x15
 1337 016b 00        		.byte	0x0
 1338 016c 05        		.uleb128 0x5
 1339 016d 02        		.byte	0x2
 1340 016e 0000 0000 		.long	.LM34
 1341 0172 18        		.byte	0x18
 1342 0173 00        		.byte	0x0
 1343 0174 05        		.uleb128 0x5
 1344 0175 02        		.byte	0x2
 1345 0176 0000 0000 		.long	.LM35
 1346 017a 0E        		.byte	0xe
 1347 017b 00        		.byte	0x0
 1348 017c 05        		.uleb128 0x5
 1349 017d 02        		.byte	0x2
 1350 017e 0000 0000 		.long	.LM36
 1351 0182 0E        		.byte	0xe
 1352 0183 00        		.byte	0x0
 1353 0184 05        		.uleb128 0x5
 1354 0185 02        		.byte	0x2
 1355 0186 0000 0000 		.long	.LM37
 1356 018a 20        		.byte	0x20
 1357 018b 00        		.byte	0x0
 1358 018c 05        		.uleb128 0x5
 1359 018d 02        		.byte	0x2
 1360 018e 0000 0000 		.long	.LM38
 1361 0192 20        		.byte	0x20
 1362 0193 00        		.byte	0x0
 1363 0194 05        		.uleb128 0x5
 1364 0195 02        		.byte	0x2
 1365 0196 0000 0000 		.long	.LM39
 1366 019a 15        		.byte	0x15
 1367 019b 00        		.byte	0x0
GAS LISTING C:\users\mohammadreza\Temp/ccZDXPJx.s 			page 26


 1368 019c 05        		.uleb128 0x5
 1369 019d 02        		.byte	0x2
 1370 019e 0000 0000 		.long	.LM40
 1371 01a2 16        		.byte	0x16
 1372 01a3 00        		.byte	0x0
 1373 01a4 05        		.uleb128 0x5
 1374 01a5 02        		.byte	0x2
 1375 01a6 0000 0000 		.long	.LM41
 1376 01aa 15        		.byte	0x15
 1377 01ab 00        		.byte	0x0
 1378 01ac 05        		.uleb128 0x5
 1379 01ad 02        		.byte	0x2
 1380 01ae 0000 0000 		.long	.LM42
 1381 01b2 15        		.byte	0x15
 1382 01b3 00        		.byte	0x0
 1383 01b4 05        		.uleb128 0x5
 1384 01b5 02        		.byte	0x2
 1385 01b6 0000 0000 		.long	.LM43
 1386 01ba 15        		.byte	0x15
 1387 01bb 00        		.byte	0x0
 1388 01bc 05        		.uleb128 0x5
 1389 01bd 02        		.byte	0x2
 1390 01be 0000 0000 		.long	.LM44
 1391 01c2 15        		.byte	0x15
 1392 01c3 00        		.byte	0x0
 1393 01c4 05        		.uleb128 0x5
 1394 01c5 02        		.byte	0x2
 1395 01c6 0000 0000 		.long	.LM45
 1396 01ca 1B        		.byte	0x1b
 1397 01cb 00        		.byte	0x0
 1398 01cc 05        		.uleb128 0x5
 1399 01cd 02        		.byte	0x2
 1400 01ce 0000 0000 		.long	.LM46
 1401 01d2 1A        		.byte	0x1a
 1402 01d3 00        		.byte	0x0
 1403 01d4 05        		.uleb128 0x5
 1404 01d5 02        		.byte	0x2
 1405 01d6 0000 0000 		.long	.LM47
 1406 01da 19        		.byte	0x19
 1407 01db 00        		.byte	0x0
 1408 01dc 05        		.uleb128 0x5
 1409 01dd 02        		.byte	0x2
 1410 01de 0000 0000 		.long	.LM48
 1411 01e2 03        		.byte	0x3
 1412 01e3 68        		.sleb128 -24
 1413 01e4 01        		.byte	0x1
 1414 01e5 00        		.byte	0x0
 1415 01e6 05        		.uleb128 0x5
 1416 01e7 02        		.byte	0x2
 1417 01e8 0000 0000 		.long	.LM49
 1418 01ec 3A        		.byte	0x3a
 1419 01ed 00        		.byte	0x0
 1420 01ee 05        		.uleb128 0x5
 1421 01ef 02        		.byte	0x2
 1422 01f0 0000 0000 		.long	.LM50
 1423 01f4 01        		.byte	0x1
 1424 01f5 00        		.byte	0x0
GAS LISTING C:\users\mohammadreza\Temp/ccZDXPJx.s 			page 27


 1425 01f6 05        		.uleb128 0x5
 1426 01f7 02        		.byte	0x2
 1427 01f8 0000 0000 		.long	.LM51
 1428 01fc 17        		.byte	0x17
 1429 01fd 00        		.byte	0x0
 1430 01fe 05        		.uleb128 0x5
 1431 01ff 02        		.byte	0x2
 1432 0200 0000 0000 		.long	.LM52
 1433 0204 15        		.byte	0x15
 1434 0205 00        		.byte	0x0
 1435 0206 05        		.uleb128 0x5
 1436 0207 02        		.byte	0x2
 1437 0208 0000 0000 		.long	.LM53
 1438 020c 15        		.byte	0x15
 1439 020d 00        		.byte	0x0
 1440 020e 05        		.uleb128 0x5
 1441 020f 02        		.byte	0x2
 1442 0210 0000 0000 		.long	.LM54
 1443 0214 12        		.byte	0x12
 1444 0215 00        		.byte	0x0
 1445 0216 05        		.uleb128 0x5
 1446 0217 02        		.byte	0x2
 1447 0218 0000 0000 		.long	.LM55
 1448 021c 19        		.byte	0x19
 1449 021d 00        		.byte	0x0
 1450 021e 05        		.uleb128 0x5
 1451 021f 02        		.byte	0x2
 1452 0220 0000 0000 		.long	.LM56
 1453 0224 18        		.byte	0x18
 1454 0225 00        		.byte	0x0
 1455 0226 05        		.uleb128 0x5
 1456 0227 02        		.byte	0x2
 1457 0228 0000 0000 		.long	.LM57
 1458 022c 15        		.byte	0x15
 1459 022d 00        		.byte	0x0
 1460 022e 05        		.uleb128 0x5
 1461 022f 02        		.byte	0x2
 1462 0230 0000 0000 		.long	.LM58
 1463 0234 15        		.byte	0x15
 1464 0235 00        		.byte	0x0
 1465 0236 05        		.uleb128 0x5
 1466 0237 02        		.byte	0x2
 1467 0238 0000 0000 		.long	.LM59
 1468 023c 18        		.byte	0x18
 1469 023d 00        		.byte	0x0
 1470 023e 05        		.uleb128 0x5
 1471 023f 02        		.byte	0x2
 1472 0240 0000 0000 		.long	.LM60
 1473 0244 15        		.byte	0x15
 1474 0245 00        		.byte	0x0
 1475 0246 05        		.uleb128 0x5
 1476 0247 02        		.byte	0x2
 1477 0248 0000 0000 		.long	.LM61
 1478 024c 15        		.byte	0x15
 1479 024d 00        		.byte	0x0
 1480 024e 05        		.uleb128 0x5
 1481 024f 02        		.byte	0x2
GAS LISTING C:\users\mohammadreza\Temp/ccZDXPJx.s 			page 28


 1482 0250 0000 0000 		.long	.Letext0
 1483 0254 00        		.byte	0x0
 1484 0255 01        		.uleb128 0x1
 1485 0256 01        		.byte	0x1
 1486               	.LELT0:
 1487 0257 1600 0000 		.section	.debug_str,"MS",@progbits,1
 1487      0200 1000 
 1487      0000 0101 
 1487      FB0E 0A00 
 1487      0101 0101 
 1488               	.LASF27:
 1489 0000 705F 7561 		.string	"p_uart_rxout"
 1489      7274 5F72 
 1489      786F 7574 
 1489      00
 1490               	.LASF30:
 1491 000d 6275 665F 		.string	"buf_uart_tx"
 1491      7561 7274 
 1491      5F74 7800 
 1492               	.LASF19:
 1493 0019 665F 5561 		.string	"f_Uart_PutStr"
 1493      7274 5F50 
 1493      7574 5374 
 1493      7200 
 1494               	.LASF10:
 1495 0027 626F 6F6C 		.string	"bool"
 1495      00
 1496               	.LASF33:
 1497 002c 7372 632F 		.string	"src/periphint/Uart.c"
 1497      7065 7269 
 1497      7068 696E 
 1497      742F 5561 
 1497      7274 2E63 
 1498               	.LASF16:
 1499 0041 5F5F 7665 		.string	"__vector_11"
 1499      6374 6F72 
 1499      5F31 3100 
 1500               	.LASF15:
 1501 004d 5F5F 7665 		.string	"__vector_12"
 1501      6374 6F72 
 1501      5F31 3200 
 1502               	.LASF28:
 1503 0059 5541 5254 		.string	"UART_CLR"
 1503      5F43 4C52 
 1503      00
 1504               	.LASF1:
 1505 0062 756E 7369 		.string	"unsigned char"
 1505      676E 6564 
 1505      2063 6861 
 1505      7200 
 1506               	.LASF34:
 1507 0070 5A3A 5C68 		.ascii	"Z:\\ho"
 1507      6F
 1508 0075 6D65 5C6D 		.string	"me\\mohammadreza\\temo\\Simple-AVR-OS-plus-some-improvement-\\avr_os"
 1508      6F68 616D 
 1508      6D61 6472 
 1508      657A 615C 
GAS LISTING C:\users\mohammadreza\Temp/ccZDXPJx.s 			page 29


 1508      7465 6D6F 
 1509               	.LASF4:
 1510 00b6 6C6F 6E67 		.string	"long unsigned int"
 1510      2075 6E73 
 1510      6967 6E65 
 1510      6420 696E 
 1510      7400 
 1511               	.LASF8:
 1512 00c8 7368 6F72 		.string	"short unsigned int"
 1512      7420 756E 
 1512      7369 676E 
 1512      6564 2069 
 1512      6E74 00
 1513               	.LASF32:
 1514 00db 474E 5520 		.string	"GNU C 4.3.3"
 1514      4320 342E 
 1514      332E 3300 
 1515               	.LASF20:
 1516 00e7 665F 5561 		.string	"f_Uart_ClrScr"
 1516      7274 5F43 
 1516      6C72 5363 
 1516      7200 
 1517               	.LASF13:
 1518 00f5 494E 5431 		.string	"INT16"
 1518      3600 
 1519               	.LASF26:
 1520 00fb 705F 7561 		.string	"p_uart_rxin"
 1520      7274 5F72 
 1520      7869 6E00 
 1521               	.LASF25:
 1522 0107 705F 7561 		.string	"p_uart_txout"
 1522      7274 5F74 
 1522      786F 7574 
 1522      00
 1523               	.LASF2:
 1524 0114 756E 7369 		.string	"unsigned int"
 1524      676E 6564 
 1524      2069 6E74 
 1524      00
 1525               	.LASF11:
 1526 0121 494E 5438 		.string	"INT8U"
 1526      5500 
 1527               	.LASF6:
 1528 0127 6C6F 6E67 		.string	"long long unsigned int"
 1528      206C 6F6E 
 1528      6720 756E 
 1528      7369 676E 
 1528      6564 2069 
 1529               	.LASF23:
 1530 013e 765F 7561 		.string	"v_uart_rxbuf_cnt"
 1530      7274 5F72 
 1530      7862 7566 
 1530      5F63 6E74 
 1530      00
 1531               	.LASF18:
 1532 014f 665F 5561 		.string	"f_Uart_PutChar"
 1532      7274 5F50 
GAS LISTING C:\users\mohammadreza\Temp/ccZDXPJx.s 			page 30


 1532      7574 4368 
 1532      6172 00
 1533               	.LASF14:
 1534 015e 665F 436F 		.string	"f_ConfigSerial"
 1534      6E66 6967 
 1534      5365 7269 
 1534      616C 00
 1535               	.LASF5:
 1536 016d 6C6F 6E67 		.string	"long long int"
 1536      206C 6F6E 
 1536      6720 696E 
 1536      7400 
 1537               	.LASF7:
 1538 017b 6368 6172 		.string	"char"
 1538      00
 1539               	.LASF12:
 1540 0180 494E 5438 		.string	"INT8"
 1540      00
 1541               	.LASF29:
 1542 0185 5541 5254 		.string	"UART_NL"
 1542      5F4E 4C00 
 1543               	.LASF9:
 1544 018d 7368 6F72 		.string	"short int"
 1544      7420 696E 
 1544      7400 
 1545               	.LASF24:
 1546 0197 705F 7561 		.string	"p_uart_txin"
 1546      7274 5F74 
 1546      7869 6E00 
 1547               	.LASF17:
 1548 01a3 665F 5561 		.string	"f_Uart_GetChar"
 1548      7274 5F47 
 1548      6574 4368 
 1548      6172 00
 1549               	.LASF3:
 1550 01b2 6C6F 6E67 		.string	"long int"
 1550      2069 6E74 
 1550      00
 1551               	.LASF21:
 1552 01bb 665F 5561 		.string	"f_Uart_NL"
 1552      7274 5F4E 
 1552      4C00 
 1553               	.LASF0:
 1554 01c5 7369 676E 		.string	"signed char"
 1554      6564 2063 
 1554      6861 7200 
 1555               	.LASF31:
 1556 01d1 6275 665F 		.string	"buf_uart_rx"
 1556      7561 7274 
 1556      5F72 7800 
 1557               	.LASF22:
 1558 01dd 765F 7561 		.string	"v_uart_txbuf_cnt"
 1558      7274 5F74 
 1558      7862 7566 
 1558      5F63 6E74 
 1558      00
 1559               	.global __do_copy_data
GAS LISTING C:\users\mohammadreza\Temp/ccZDXPJx.s 			page 31


 1560               	.global __do_clear_bss
GAS LISTING C:\users\mohammadreza\Temp/ccZDXPJx.s 			page 32


DEFINED SYMBOLS
                            *ABS*:00000000 Uart.c
C:\users\mohammadreza\Temp/ccZDXPJx.s:2      *ABS*:0000003f __SREG__
C:\users\mohammadreza\Temp/ccZDXPJx.s:3      *ABS*:0000003e __SP_H__
C:\users\mohammadreza\Temp/ccZDXPJx.s:4      *ABS*:0000003d __SP_L__
C:\users\mohammadreza\Temp/ccZDXPJx.s:5      *ABS*:00000034 __CCP__
C:\users\mohammadreza\Temp/ccZDXPJx.s:6      *ABS*:00000000 __tmp_reg__
C:\users\mohammadreza\Temp/ccZDXPJx.s:7      *ABS*:00000001 __zero_reg__
C:\users\mohammadreza\Temp/ccZDXPJx.s:18     .text:00000000 f_ConfigSerial
                            *COM*:00000040 buf_uart_tx
                            *COM*:00000002 p_uart_txout
                            *COM*:00000002 p_uart_txin
                            *COM*:00000010 buf_uart_rx
                            *COM*:00000002 p_uart_rxout
                            *COM*:00000002 p_uart_rxin
                            *COM*:00000001 v_uart_txbuf_cnt
                            *COM*:00000001 v_uart_rxbuf_cnt
C:\users\mohammadreza\Temp/ccZDXPJx.s:61     .text:00000042 __vector_12
C:\users\mohammadreza\Temp/ccZDXPJx.s:121    .text:000000a8 __vector_11
C:\users\mohammadreza\Temp/ccZDXPJx.s:176    .text:0000010a f_Uart_GetChar
C:\users\mohammadreza\Temp/ccZDXPJx.s:236    .text:00000154 f_Uart_PutChar
C:\users\mohammadreza\Temp/ccZDXPJx.s:296    .text:000001a4 f_Uart_PutStr
C:\users\mohammadreza\Temp/ccZDXPJx.s:336    .text:000001c8 f_Uart_ClrScr
C:\users\mohammadreza\Temp/ccZDXPJx.s:370    .data:00000000 UART_CLR
C:\users\mohammadreza\Temp/ccZDXPJx.s:352    .text:000001d2 f_Uart_NL
C:\users\mohammadreza\Temp/ccZDXPJx.s:382    .data:00000008 UART_NL

UNDEFINED SYMBOLS
__do_copy_data
__do_clear_bss
