GAS LISTING C:\users\mohammadreza\Temp/ccizdtz6.s 			page 1


   1               		.file	"applic.c"
   2               	__SREG__ = 0x3f
   3               	__SP_H__ = 0x3e
   4               	__SP_L__ = 0x3d
   5               	__CCP__  = 0x34
   6               	__tmp_reg__ = 0
   7               	__zero_reg__ = 1
   8               		.section	.debug_abbrev,"",@progbits
   9               	.Ldebug_abbrev0:
  10               		.section	.debug_info,"",@progbits
  11               	.Ldebug_info0:
  12               		.section	.debug_line,"",@progbits
  13               	.Ldebug_line0:
  14               		.text
  15               	.Ltext0:
  16               		.data
  17               	.LC0:
  18 0000 0A55 6E6C 		.string	"\nUnlock\n"
  18      6F63 6B0A 
  18      00
  19               		.text
  20               	.global	f_LockUnLock
  21               		.type	f_LockUnLock, @function
  22               	f_LockUnLock:
  23               	.LFB7:
  24               	.LM1:
  25               	/* prologue: function */
  26               	/* frame size = 0 */
  27               	.LM2:
  28 0000 80E0      		ldi r24,lo8(0)
  29 0002 0E94 0000 		call f_PWM1Enable
  30               	.LM3:
  31 0006 6091 0000 		lds r22,v_ServoUnLock
  32 000a 80E0      		ldi r24,lo8(0)
  33 000c 0E94 0000 		call f_PWM1Set
  34               	.LM4:
  35 0010 80E0      		ldi r24,lo8(.LC0)
  36 0012 90E0      		ldi r25,hi8(.LC0)
  37 0014 0E94 0000 		call f_Uart_PutStr
  38               	/* epilogue start */
  39               	.LM5:
  40 0018 0895      		ret
  41               	.LFE7:
  42               		.size	f_LockUnLock, .-f_LockUnLock
  43               		.data
  44               	.LC1:
  45 0009 0A4C 6F63 		.string	"\nLock Idle\n"
  45      6B20 4964 
  45      6C65 0A00 
  46               		.text
  47               	.global	f_LockIdle
  48               		.type	f_LockIdle, @function
  49               	f_LockIdle:
  50               	.LFB6:
  51               	.LM6:
  52               	/* prologue: function */
  53               	/* frame size = 0 */
GAS LISTING C:\users\mohammadreza\Temp/ccizdtz6.s 			page 2


  54               	.LM7:
  55 001a 80E0      		ldi r24,lo8(.LC1)
  56 001c 90E0      		ldi r25,hi8(.LC1)
  57 001e 0E94 0000 		call f_Uart_PutStr
  58               	/* epilogue start */
  59               	.LM8:
  60 0022 0895      		ret
  61               	.LFE6:
  62               		.size	f_LockIdle, .-f_LockIdle
  63               		.data
  64               	.LC2:
  65 0015 0A4C 6F63 		.string	"\nLock\n"
  65      6B0A 00
  66               		.text
  67               	.global	f_LockLock
  68               		.type	f_LockLock, @function
  69               	f_LockLock:
  70               	.LFB5:
  71               	.LM9:
  72               	/* prologue: function */
  73               	/* frame size = 0 */
  74               	.LM10:
  75 0024 80E0      		ldi r24,lo8(0)
  76 0026 0E94 0000 		call f_PWM1Enable
  77               	.LM11:
  78 002a 6091 0000 		lds r22,v_ServoLock
  79 002e 80E0      		ldi r24,lo8(0)
  80 0030 0E94 0000 		call f_PWM1Set
  81               	.LM12:
  82 0034 80E0      		ldi r24,lo8(.LC2)
  83 0036 90E0      		ldi r25,hi8(.LC2)
  84 0038 0E94 0000 		call f_Uart_PutStr
  85               	/* epilogue start */
  86               	.LM13:
  87 003c 0895      		ret
  88               	.LFE5:
  89               		.size	f_LockLock, .-f_LockLock
  90               	.global	f_LockFSM
  91               		.type	f_LockFSM, @function
  92               	f_LockFSM:
  93               	.LFB8:
  94               	.LM14:
  95               	/* prologue: function */
  96               	/* frame size = 0 */
  97               	.LM15:
  98 003e 8091 0000 		lds r24,state_Lock
  99 0042 9091 0000 		lds r25,(state_Lock)+1
 100 0046 8130      		cpi r24,1
 101 0048 9105      		cpc r25,__zero_reg__
 102 004a 01F0      		breq .L10
 103 004c 8130      		cpi r24,1
 104 004e 9105      		cpc r25,__zero_reg__
 105 0050 00F0      		brlo .L9
 106 0052 8230      		cpi r24,2
 107 0054 9105      		cpc r25,__zero_reg__
 108 0056 01F0      		breq .L11
 109 0058 0397      		sbiw r24,3
GAS LISTING C:\users\mohammadreza\Temp/ccizdtz6.s 			page 3


 110 005a 01F0      		breq .L17
 111               	.LM16:
 112 005c 1092 0000 		sts (state_Lock)+1,__zero_reg__
 113 0060 1092 0000 		sts state_Lock,__zero_reg__
 114               	.L14:
 115 0064 0895      		ret
 116               	.L9:
 117               	.LM17:
 118 0066 0E94 0000 		call f_SCard_CheckCardIn
 119               	.LM18:
 120 006a 8230      		cpi r24,lo8(2)
 121 006c 01F4      		brne .L14
 122               	.LM19:
 123 006e 81E0      		ldi r24,lo8(1)
 124 0070 90E0      		ldi r25,hi8(1)
 125 0072 9093 0000 		sts (state_Lock)+1,r25
 126 0076 8093 0000 		sts state_Lock,r24
 127               	.LM20:
 128 007a 0E94 0000 		call f_LockLock
 129               	.LM21:
 130 007e 88EB      		ldi r24,lo8(3000)
 131 0080 9BE0      		ldi r25,hi8(3000)
 132 0082 9093 0000 		sts (v_SwTimer_mS)+1,r25
 133 0086 8093 0000 		sts v_SwTimer_mS,r24
 134 008a 0895      		ret
 135               	.L17:
 136               	.LM22:
 137 008c 8091 0000 		lds r24,v_SwTimer_mS
 138 0090 9091 0000 		lds r25,(v_SwTimer_mS)+1
 139 0094 892B      		or r24,r25
 140 0096 01F4      		brne .L14
 141               	.LM23:
 142 0098 1092 0000 		sts (state_Lock)+1,__zero_reg__
 143 009c 1092 0000 		sts state_Lock,__zero_reg__
 144               	.LBB6:
 145               	.LBB7:
 146               	.LM24:
 147 00a0 80E0      		ldi r24,lo8(.LC1)
 148 00a2 90E0      		ldi r25,hi8(.LC1)
 149 00a4 0E94 0000 		call f_Uart_PutStr
 150 00a8 0895      		ret
 151               	.L10:
 152               	.LBE7:
 153               	.LBE6:
 154               	.LM25:
 155 00aa 8091 0000 		lds r24,v_SwTimer_mS
 156 00ae 9091 0000 		lds r25,(v_SwTimer_mS)+1
 157 00b2 892B      		or r24,r25
 158 00b4 01F4      		brne .L14
 159               	.LM26:
 160 00b6 82E0      		ldi r24,lo8(2)
 161 00b8 90E0      		ldi r25,hi8(2)
 162 00ba 9093 0000 		sts (state_Lock)+1,r25
 163 00be 8093 0000 		sts state_Lock,r24
 164               	.LBB8:
 165               	.LBB9:
 166               	.LM27:
GAS LISTING C:\users\mohammadreza\Temp/ccizdtz6.s 			page 4


 167 00c2 80E0      		ldi r24,lo8(.LC1)
 168 00c4 90E0      		ldi r25,hi8(.LC1)
 169 00c6 0E94 0000 		call f_Uart_PutStr
 170 00ca 0895      		ret
 171               	.L11:
 172               	.LBE9:
 173               	.LBE8:
 174               	.LM28:
 175 00cc 0E94 0000 		call f_SCard_CheckCardIn
 176               	.LM29:
 177 00d0 8230      		cpi r24,lo8(2)
 178 00d2 01F4      		brne .L14
 179               	.LM30:
 180 00d4 83E0      		ldi r24,lo8(3)
 181 00d6 90E0      		ldi r25,hi8(3)
 182 00d8 9093 0000 		sts (state_Lock)+1,r25
 183 00dc 8093 0000 		sts state_Lock,r24
 184               	.LM31:
 185 00e0 0E94 0000 		call f_LockUnLock
 186               	.LM32:
 187 00e4 88EB      		ldi r24,lo8(3000)
 188 00e6 9BE0      		ldi r25,hi8(3000)
 189 00e8 9093 0000 		sts (v_SwTimer_mS)+1,r25
 190 00ec 8093 0000 		sts v_SwTimer_mS,r24
 191 00f0 0895      		ret
 192               	.LFE8:
 193               		.size	f_LockFSM, .-f_LockFSM
 194               	.global	f_Applic
 195               		.type	f_Applic, @function
 196               	f_Applic:
 197               	.LFB4:
 198               	.LM33:
 199               	/* prologue: function */
 200               	/* frame size = 0 */
 201               	.LM34:
 202 00f2 0E94 0000 		call f_LockFSM
 203               	/* epilogue start */
 204               	.LM35:
 205 00f6 0895      		ret
 206               	.LFE4:
 207               		.size	f_Applic, .-f_Applic
 208               	.global	my_Applic
 209               		.type	my_Applic, @function
 210               	my_Applic:
 211               	.LFB3:
 212               	.LM36:
 213               	/* prologue: function */
 214               	/* frame size = 0 */
 215               	.LM37:
 216 00f8 8091 0000 		lds r24,c
 217 00fc 8F5F      		subi r24,lo8(-(1))
 218 00fe 8093 0000 		sts c,r24
 219               	.LM38:
 220 0102 84E6      		ldi r24,lo8(100)
 221 0104 0E94 0000 		call f_Delay_ms
 222               	.LM39:
 223 0108 8091 0000 		lds r24,c
GAS LISTING C:\users\mohammadreza\Temp/ccizdtz6.s 			page 5


 224 010c 8BBB      		out 59-32,r24
 225               	/* epilogue start */
 226               	.LM40:
 227 010e 0895      		ret
 228               	.LFE3:
 229               		.size	my_Applic, .-my_Applic
 230               	.global	f_Init_Applic
 231               		.type	f_Init_Applic, @function
 232               	f_Init_Applic:
 233               	.LFB2:
 234               	.LM41:
 235               	/* prologue: function */
 236               	/* frame size = 0 */
 237               	.LM42:
 238 0110 1092 0000 		sts (state_Lock)+1,__zero_reg__
 239 0114 1092 0000 		sts state_Lock,__zero_reg__
 240               	.LM43:
 241 0118 1092 0000 		sts (v_SwTimer_mS)+1,__zero_reg__
 242 011c 1092 0000 		sts v_SwTimer_mS,__zero_reg__
 243               	.LM44:
 244 0120 0E94 0000 		call f_InitPWM1
 245               	.LM45:
 246 0124 82E3      		ldi r24,lo8(50)
 247 0126 8093 0000 		sts v_ServoLock,r24
 248               	.LM46:
 249 012a 8EE1      		ldi r24,lo8(30)
 250 012c 8093 0000 		sts v_ServoUnLock,r24
 251               	/* epilogue start */
 252               	.LM47:
 253 0130 0895      		ret
 254               	.LFE2:
 255               		.size	f_Init_Applic, .-f_Init_Applic
 256               	.global	c
 257               	.global	c
 258               		.section .bss
 259               		.type	c, @object
 260               		.size	c, 1
 261               	c:
 262 0000 00        		.skip 1,0
 263               		.comm state_Lock,2,1
 264               		.comm v_ServoLock,1,1
 265               		.comm v_ServoUnLock,1,1
 266               		.section	.debug_frame,"",@progbits
 267               	.Lframe0:
 268 0000 0C00 0000 		.long	.LECIE0-.LSCIE0
 269               	.LSCIE0:
 270 0004 FFFF FFFF 		.long	0xffffffff
 271 0008 01        		.byte	0x1
 272 0009 00        		.string	""
 273 000a 01        		.uleb128 0x1
 274 000b 7F        		.sleb128 -1
 275 000c 24        		.byte	0x24
 276 000d 0C        		.byte	0xc
 277 000e 20        		.uleb128 0x20
 278 000f 00        		.uleb128 0x0
 279               		.p2align	2
 280               	.LECIE0:
GAS LISTING C:\users\mohammadreza\Temp/ccizdtz6.s 			page 6


 281               	.LSFDE0:
 282 0010 0C00 0000 		.long	.LEFDE0-.LASFDE0
 283               	.LASFDE0:
 284 0014 0000 0000 		.long	.Lframe0
 285 0018 0000 0000 		.long	.LFB7
 286 001c 1A00 0000 		.long	.LFE7-.LFB7
 287               		.p2align	2
 288               	.LEFDE0:
 289               	.LSFDE2:
 290 0020 0C00 0000 		.long	.LEFDE2-.LASFDE2
 291               	.LASFDE2:
 292 0024 0000 0000 		.long	.Lframe0
 293 0028 0000 0000 		.long	.LFB6
 294 002c 0A00 0000 		.long	.LFE6-.LFB6
 295               		.p2align	2
 296               	.LEFDE2:
 297               	.LSFDE4:
 298 0030 0C00 0000 		.long	.LEFDE4-.LASFDE4
 299               	.LASFDE4:
 300 0034 0000 0000 		.long	.Lframe0
 301 0038 0000 0000 		.long	.LFB5
 302 003c 1A00 0000 		.long	.LFE5-.LFB5
 303               		.p2align	2
 304               	.LEFDE4:
 305               	.LSFDE6:
 306 0040 0C00 0000 		.long	.LEFDE6-.LASFDE6
 307               	.LASFDE6:
 308 0044 0000 0000 		.long	.Lframe0
 309 0048 0000 0000 		.long	.LFB8
 310 004c B400 0000 		.long	.LFE8-.LFB8
 311               		.p2align	2
 312               	.LEFDE6:
 313               	.LSFDE8:
 314 0050 0C00 0000 		.long	.LEFDE8-.LASFDE8
 315               	.LASFDE8:
 316 0054 0000 0000 		.long	.Lframe0
 317 0058 0000 0000 		.long	.LFB4
 318 005c 0600 0000 		.long	.LFE4-.LFB4
 319               		.p2align	2
 320               	.LEFDE8:
 321               	.LSFDE10:
 322 0060 0C00 0000 		.long	.LEFDE10-.LASFDE10
 323               	.LASFDE10:
 324 0064 0000 0000 		.long	.Lframe0
 325 0068 0000 0000 		.long	.LFB3
 326 006c 1800 0000 		.long	.LFE3-.LFB3
 327               		.p2align	2
 328               	.LEFDE10:
 329               	.LSFDE12:
 330 0070 0C00 0000 		.long	.LEFDE12-.LASFDE12
 331               	.LASFDE12:
 332 0074 0000 0000 		.long	.Lframe0
 333 0078 0000 0000 		.long	.LFB2
 334 007c 2200 0000 		.long	.LFE2-.LFB2
 335               		.p2align	2
 336               	.LEFDE12:
 337               		.text
GAS LISTING C:\users\mohammadreza\Temp/ccizdtz6.s 			page 7


 338               	.Letext0:
 339               		.section	.debug_info
 340 0000 E101 0000 		.long	0x1e1
 341 0004 0200      		.word	0x2
 342 0006 0000 0000 		.long	.Ldebug_abbrev0
 343 000a 04        		.byte	0x4
 344 000b 01        		.uleb128 0x1
 345 000c 0000 0000 		.long	.LASF26
 346 0010 01        		.byte	0x1
 347 0011 0000 0000 		.long	.LASF27
 348 0015 0000 0000 		.long	.LASF28
 349 0019 0000 0000 		.long	.Ltext0
 350 001d 0000 0000 		.long	.Letext0
 351 0021 0000 0000 		.long	.Ldebug_line0
 352 0025 02        		.uleb128 0x2
 353 0026 01        		.byte	0x1
 354 0027 06        		.byte	0x6
 355 0028 0000 0000 		.long	.LASF0
 356 002c 02        		.uleb128 0x2
 357 002d 01        		.byte	0x1
 358 002e 08        		.byte	0x8
 359 002f 0000 0000 		.long	.LASF1
 360 0033 03        		.uleb128 0x3
 361 0034 02        		.byte	0x2
 362 0035 05        		.byte	0x5
 363 0036 696E 7400 		.string	"int"
 364 003a 02        		.uleb128 0x2
 365 003b 02        		.byte	0x2
 366 003c 07        		.byte	0x7
 367 003d 0000 0000 		.long	.LASF2
 368 0041 02        		.uleb128 0x2
 369 0042 04        		.byte	0x4
 370 0043 05        		.byte	0x5
 371 0044 0000 0000 		.long	.LASF3
 372 0048 02        		.uleb128 0x2
 373 0049 04        		.byte	0x4
 374 004a 07        		.byte	0x7
 375 004b 0000 0000 		.long	.LASF4
 376 004f 02        		.uleb128 0x2
 377 0050 08        		.byte	0x8
 378 0051 05        		.byte	0x5
 379 0052 0000 0000 		.long	.LASF5
 380 0056 02        		.uleb128 0x2
 381 0057 08        		.byte	0x8
 382 0058 07        		.byte	0x7
 383 0059 0000 0000 		.long	.LASF6
 384 005d 02        		.uleb128 0x2
 385 005e 01        		.byte	0x1
 386 005f 06        		.byte	0x6
 387 0060 0000 0000 		.long	.LASF7
 388 0064 02        		.uleb128 0x2
 389 0065 02        		.byte	0x2
 390 0066 07        		.byte	0x7
 391 0067 0000 0000 		.long	.LASF8
 392 006b 02        		.uleb128 0x2
 393 006c 02        		.byte	0x2
 394 006d 05        		.byte	0x5
GAS LISTING C:\users\mohammadreza\Temp/ccizdtz6.s 			page 8


 395 006e 0000 0000 		.long	.LASF9
 396 0072 04        		.uleb128 0x4
 397 0073 0000 0000 		.long	.LASF10
 398 0077 02        		.byte	0x2
 399 0078 0D        		.byte	0xd
 400 0079 2C00 0000 		.long	0x2c
 401 007d 04        		.uleb128 0x4
 402 007e 0000 0000 		.long	.LASF11
 403 0082 02        		.byte	0x2
 404 0083 0F        		.byte	0xf
 405 0084 6400 0000 		.long	0x64
 406 0088 05        		.uleb128 0x5
 407 0089 02        		.byte	0x2
 408 008a 01        		.byte	0x1
 409 008b 27        		.byte	0x27
 410 008c A900 0000 		.long	0xa9
 411 0090 06        		.uleb128 0x6
 412 0091 0000 0000 		.long	.LASF12
 413 0095 00        		.sleb128 0
 414 0096 06        		.uleb128 0x6
 415 0097 0000 0000 		.long	.LASF13
 416 009b 01        		.sleb128 1
 417 009c 06        		.uleb128 0x6
 418 009d 0000 0000 		.long	.LASF14
 419 00a1 02        		.sleb128 2
 420 00a2 06        		.uleb128 0x6
 421 00a3 0000 0000 		.long	.LASF15
 422 00a7 03        		.sleb128 3
 423 00a8 00        		.byte	0x0
 424 00a9 04        		.uleb128 0x4
 425 00aa 0000 0000 		.long	.LASF16
 426 00ae 01        		.byte	0x1
 427 00af 27        		.byte	0x27
 428 00b0 8800 0000 		.long	0x88
 429 00b4 07        		.uleb128 0x7
 430 00b5 01        		.byte	0x1
 431 00b6 0000 0000 		.long	.LASF29
 432 00ba 01        		.byte	0x1
 433 00bb 77        		.byte	0x77
 434 00bc 01        		.byte	0x1
 435 00bd 00        		.byte	0x0
 436 00be 08        		.uleb128 0x8
 437 00bf 01        		.byte	0x1
 438 00c0 0000 0000 		.long	.LASF17
 439 00c4 01        		.byte	0x1
 440 00c5 82        		.byte	0x82
 441 00c6 01        		.byte	0x1
 442 00c7 0000 0000 		.long	.LFB7
 443 00cb 0000 0000 		.long	.LFE7
 444 00cf 02        		.byte	0x2
 445 00d0 90        		.byte	0x90
 446 00d1 20        		.uleb128 0x20
 447 00d2 09        		.uleb128 0x9
 448 00d3 B400 0000 		.long	0xb4
 449 00d7 0000 0000 		.long	.LFB6
 450 00db 0000 0000 		.long	.LFE6
 451 00df 02        		.byte	0x2
GAS LISTING C:\users\mohammadreza\Temp/ccizdtz6.s 			page 9


 452 00e0 90        		.byte	0x90
 453 00e1 20        		.uleb128 0x20
 454 00e2 08        		.uleb128 0x8
 455 00e3 01        		.byte	0x1
 456 00e4 0000 0000 		.long	.LASF18
 457 00e8 01        		.byte	0x1
 458 00e9 6F        		.byte	0x6f
 459 00ea 01        		.byte	0x1
 460 00eb 0000 0000 		.long	.LFB5
 461 00ef 0000 0000 		.long	.LFE5
 462 00f3 02        		.byte	0x2
 463 00f4 90        		.byte	0x90
 464 00f5 20        		.uleb128 0x20
 465 00f6 0A        		.uleb128 0xa
 466 00f7 01        		.byte	0x1
 467 00f8 0000 0000 		.long	.LASF30
 468 00fc 01        		.byte	0x1
 469 00fd 8B        		.byte	0x8b
 470 00fe 01        		.byte	0x1
 471 00ff 0000 0000 		.long	.LFB8
 472 0103 0000 0000 		.long	.LFE8
 473 0107 02        		.byte	0x2
 474 0108 90        		.byte	0x90
 475 0109 20        		.uleb128 0x20
 476 010a 3801 0000 		.long	0x138
 477 010e 0B        		.uleb128 0xb
 478 010f 0000 0000 		.long	.LASF31
 479 0113 01        		.byte	0x1
 480 0114 8C        		.byte	0x8c
 481 0115 7200 0000 		.long	0x72
 482 0119 0C        		.uleb128 0xc
 483 011a B400 0000 		.long	0xb4
 484 011e 0000 0000 		.long	.LBB6
 485 0122 0000 0000 		.long	.LBE6
 486 0126 01        		.byte	0x1
 487 0127 BA        		.byte	0xba
 488 0128 0C        		.uleb128 0xc
 489 0129 B400 0000 		.long	0xb4
 490 012d 0000 0000 		.long	.LBB8
 491 0131 0000 0000 		.long	.LBE8
 492 0135 01        		.byte	0x1
 493 0136 A3        		.byte	0xa3
 494 0137 00        		.byte	0x0
 495 0138 08        		.uleb128 0x8
 496 0139 01        		.byte	0x1
 497 013a 0000 0000 		.long	.LASF19
 498 013e 01        		.byte	0x1
 499 013f 68        		.byte	0x68
 500 0140 01        		.byte	0x1
 501 0141 0000 0000 		.long	.LFB4
 502 0145 0000 0000 		.long	.LFE4
 503 0149 02        		.byte	0x2
 504 014a 90        		.byte	0x90
 505 014b 20        		.uleb128 0x20
 506 014c 08        		.uleb128 0x8
 507 014d 01        		.byte	0x1
 508 014e 0000 0000 		.long	.LASF20
GAS LISTING C:\users\mohammadreza\Temp/ccizdtz6.s 			page 10


 509 0152 01        		.byte	0x1
 510 0153 62        		.byte	0x62
 511 0154 01        		.byte	0x1
 512 0155 0000 0000 		.long	.LFB3
 513 0159 0000 0000 		.long	.LFE3
 514 015d 02        		.byte	0x2
 515 015e 90        		.byte	0x90
 516 015f 20        		.uleb128 0x20
 517 0160 08        		.uleb128 0x8
 518 0161 01        		.byte	0x1
 519 0162 0000 0000 		.long	.LASF21
 520 0166 01        		.byte	0x1
 521 0167 51        		.byte	0x51
 522 0168 01        		.byte	0x1
 523 0169 0000 0000 		.long	.LFB2
 524 016d 0000 0000 		.long	.LFE2
 525 0171 02        		.byte	0x2
 526 0172 90        		.byte	0x90
 527 0173 20        		.uleb128 0x20
 528 0174 0D        		.uleb128 0xd
 529 0175 7D00 0000 		.long	0x7d
 530 0179 8401 0000 		.long	0x184
 531 017d 0E        		.uleb128 0xe
 532 017e 8401 0000 		.long	0x184
 533 0182 03        		.byte	0x3
 534 0183 00        		.byte	0x0
 535 0184 0F        		.uleb128 0xf
 536 0185 02        		.byte	0x2
 537 0186 07        		.byte	0x7
 538 0187 10        		.uleb128 0x10
 539 0188 0000 0000 		.long	.LASF22
 540 018c 03        		.byte	0x3
 541 018d 0C        		.byte	0xc
 542 018e 7401 0000 		.long	0x174
 543 0192 01        		.byte	0x1
 544 0193 01        		.byte	0x1
 545 0194 11        		.uleb128 0x11
 546 0195 0000 0000 		.long	.LASF23
 547 0199 01        		.byte	0x1
 548 019a 2A        		.byte	0x2a
 549 019b A601 0000 		.long	0x1a6
 550 019f 01        		.byte	0x1
 551 01a0 05        		.byte	0x5
 552 01a1 03        		.byte	0x3
 553 01a2 0000 0000 		.long	state_Lock
 554 01a6 12        		.uleb128 0x12
 555 01a7 A900 0000 		.long	0xa9
 556 01ab 11        		.uleb128 0x11
 557 01ac 0000 0000 		.long	.LASF24
 558 01b0 01        		.byte	0x1
 559 01b1 49        		.byte	0x49
 560 01b2 BD01 0000 		.long	0x1bd
 561 01b6 01        		.byte	0x1
 562 01b7 05        		.byte	0x5
 563 01b8 03        		.byte	0x3
 564 01b9 0000 0000 		.long	v_ServoLock
 565 01bd 12        		.uleb128 0x12
GAS LISTING C:\users\mohammadreza\Temp/ccizdtz6.s 			page 11


 566 01be 7200 0000 		.long	0x72
 567 01c2 11        		.uleb128 0x11
 568 01c3 0000 0000 		.long	.LASF25
 569 01c7 01        		.byte	0x1
 570 01c8 4A        		.byte	0x4a
 571 01c9 BD01 0000 		.long	0x1bd
 572 01cd 01        		.byte	0x1
 573 01ce 05        		.byte	0x5
 574 01cf 03        		.byte	0x3
 575 01d0 0000 0000 		.long	v_ServoUnLock
 576 01d4 13        		.uleb128 0x13
 577 01d5 6300      		.string	"c"
 578 01d7 01        		.byte	0x1
 579 01d8 5F        		.byte	0x5f
 580 01d9 7200 0000 		.long	0x72
 581 01dd 01        		.byte	0x1
 582 01de 05        		.byte	0x5
 583 01df 03        		.byte	0x3
 584 01e0 0000 0000 		.long	c
 585 01e4 00        		.byte	0x0
 586               		.section	.debug_abbrev
 587 0000 01        		.uleb128 0x1
 588 0001 11        		.uleb128 0x11
 589 0002 01        		.byte	0x1
 590 0003 25        		.uleb128 0x25
 591 0004 0E        		.uleb128 0xe
 592 0005 13        		.uleb128 0x13
 593 0006 0B        		.uleb128 0xb
 594 0007 03        		.uleb128 0x3
 595 0008 0E        		.uleb128 0xe
 596 0009 1B        		.uleb128 0x1b
 597 000a 0E        		.uleb128 0xe
 598 000b 11        		.uleb128 0x11
 599 000c 01        		.uleb128 0x1
 600 000d 12        		.uleb128 0x12
 601 000e 01        		.uleb128 0x1
 602 000f 10        		.uleb128 0x10
 603 0010 06        		.uleb128 0x6
 604 0011 00        		.byte	0x0
 605 0012 00        		.byte	0x0
 606 0013 02        		.uleb128 0x2
 607 0014 24        		.uleb128 0x24
 608 0015 00        		.byte	0x0
 609 0016 0B        		.uleb128 0xb
 610 0017 0B        		.uleb128 0xb
 611 0018 3E        		.uleb128 0x3e
 612 0019 0B        		.uleb128 0xb
 613 001a 03        		.uleb128 0x3
 614 001b 0E        		.uleb128 0xe
 615 001c 00        		.byte	0x0
 616 001d 00        		.byte	0x0
 617 001e 03        		.uleb128 0x3
 618 001f 24        		.uleb128 0x24
 619 0020 00        		.byte	0x0
 620 0021 0B        		.uleb128 0xb
 621 0022 0B        		.uleb128 0xb
 622 0023 3E        		.uleb128 0x3e
GAS LISTING C:\users\mohammadreza\Temp/ccizdtz6.s 			page 12


 623 0024 0B        		.uleb128 0xb
 624 0025 03        		.uleb128 0x3
 625 0026 08        		.uleb128 0x8
 626 0027 00        		.byte	0x0
 627 0028 00        		.byte	0x0
 628 0029 04        		.uleb128 0x4
 629 002a 16        		.uleb128 0x16
 630 002b 00        		.byte	0x0
 631 002c 03        		.uleb128 0x3
 632 002d 0E        		.uleb128 0xe
 633 002e 3A        		.uleb128 0x3a
 634 002f 0B        		.uleb128 0xb
 635 0030 3B        		.uleb128 0x3b
 636 0031 0B        		.uleb128 0xb
 637 0032 49        		.uleb128 0x49
 638 0033 13        		.uleb128 0x13
 639 0034 00        		.byte	0x0
 640 0035 00        		.byte	0x0
 641 0036 05        		.uleb128 0x5
 642 0037 04        		.uleb128 0x4
 643 0038 01        		.byte	0x1
 644 0039 0B        		.uleb128 0xb
 645 003a 0B        		.uleb128 0xb
 646 003b 3A        		.uleb128 0x3a
 647 003c 0B        		.uleb128 0xb
 648 003d 3B        		.uleb128 0x3b
 649 003e 0B        		.uleb128 0xb
 650 003f 01        		.uleb128 0x1
 651 0040 13        		.uleb128 0x13
 652 0041 00        		.byte	0x0
 653 0042 00        		.byte	0x0
 654 0043 06        		.uleb128 0x6
 655 0044 28        		.uleb128 0x28
 656 0045 00        		.byte	0x0
 657 0046 03        		.uleb128 0x3
 658 0047 0E        		.uleb128 0xe
 659 0048 1C        		.uleb128 0x1c
 660 0049 0D        		.uleb128 0xd
 661 004a 00        		.byte	0x0
 662 004b 00        		.byte	0x0
 663 004c 07        		.uleb128 0x7
 664 004d 2E        		.uleb128 0x2e
 665 004e 00        		.byte	0x0
 666 004f 3F        		.uleb128 0x3f
 667 0050 0C        		.uleb128 0xc
 668 0051 03        		.uleb128 0x3
 669 0052 0E        		.uleb128 0xe
 670 0053 3A        		.uleb128 0x3a
 671 0054 0B        		.uleb128 0xb
 672 0055 3B        		.uleb128 0x3b
 673 0056 0B        		.uleb128 0xb
 674 0057 27        		.uleb128 0x27
 675 0058 0C        		.uleb128 0xc
 676 0059 20        		.uleb128 0x20
 677 005a 0B        		.uleb128 0xb
 678 005b 00        		.byte	0x0
 679 005c 00        		.byte	0x0
GAS LISTING C:\users\mohammadreza\Temp/ccizdtz6.s 			page 13


 680 005d 08        		.uleb128 0x8
 681 005e 2E        		.uleb128 0x2e
 682 005f 00        		.byte	0x0
 683 0060 3F        		.uleb128 0x3f
 684 0061 0C        		.uleb128 0xc
 685 0062 03        		.uleb128 0x3
 686 0063 0E        		.uleb128 0xe
 687 0064 3A        		.uleb128 0x3a
 688 0065 0B        		.uleb128 0xb
 689 0066 3B        		.uleb128 0x3b
 690 0067 0B        		.uleb128 0xb
 691 0068 27        		.uleb128 0x27
 692 0069 0C        		.uleb128 0xc
 693 006a 11        		.uleb128 0x11
 694 006b 01        		.uleb128 0x1
 695 006c 12        		.uleb128 0x12
 696 006d 01        		.uleb128 0x1
 697 006e 40        		.uleb128 0x40
 698 006f 0A        		.uleb128 0xa
 699 0070 00        		.byte	0x0
 700 0071 00        		.byte	0x0
 701 0072 09        		.uleb128 0x9
 702 0073 2E        		.uleb128 0x2e
 703 0074 00        		.byte	0x0
 704 0075 31        		.uleb128 0x31
 705 0076 13        		.uleb128 0x13
 706 0077 11        		.uleb128 0x11
 707 0078 01        		.uleb128 0x1
 708 0079 12        		.uleb128 0x12
 709 007a 01        		.uleb128 0x1
 710 007b 40        		.uleb128 0x40
 711 007c 0A        		.uleb128 0xa
 712 007d 00        		.byte	0x0
 713 007e 00        		.byte	0x0
 714 007f 0A        		.uleb128 0xa
 715 0080 2E        		.uleb128 0x2e
 716 0081 01        		.byte	0x1
 717 0082 3F        		.uleb128 0x3f
 718 0083 0C        		.uleb128 0xc
 719 0084 03        		.uleb128 0x3
 720 0085 0E        		.uleb128 0xe
 721 0086 3A        		.uleb128 0x3a
 722 0087 0B        		.uleb128 0xb
 723 0088 3B        		.uleb128 0x3b
 724 0089 0B        		.uleb128 0xb
 725 008a 27        		.uleb128 0x27
 726 008b 0C        		.uleb128 0xc
 727 008c 11        		.uleb128 0x11
 728 008d 01        		.uleb128 0x1
 729 008e 12        		.uleb128 0x12
 730 008f 01        		.uleb128 0x1
 731 0090 40        		.uleb128 0x40
 732 0091 0A        		.uleb128 0xa
 733 0092 01        		.uleb128 0x1
 734 0093 13        		.uleb128 0x13
 735 0094 00        		.byte	0x0
 736 0095 00        		.byte	0x0
GAS LISTING C:\users\mohammadreza\Temp/ccizdtz6.s 			page 14


 737 0096 0B        		.uleb128 0xb
 738 0097 34        		.uleb128 0x34
 739 0098 00        		.byte	0x0
 740 0099 03        		.uleb128 0x3
 741 009a 0E        		.uleb128 0xe
 742 009b 3A        		.uleb128 0x3a
 743 009c 0B        		.uleb128 0xb
 744 009d 3B        		.uleb128 0x3b
 745 009e 0B        		.uleb128 0xb
 746 009f 49        		.uleb128 0x49
 747 00a0 13        		.uleb128 0x13
 748 00a1 00        		.byte	0x0
 749 00a2 00        		.byte	0x0
 750 00a3 0C        		.uleb128 0xc
 751 00a4 1D        		.uleb128 0x1d
 752 00a5 00        		.byte	0x0
 753 00a6 31        		.uleb128 0x31
 754 00a7 13        		.uleb128 0x13
 755 00a8 11        		.uleb128 0x11
 756 00a9 01        		.uleb128 0x1
 757 00aa 12        		.uleb128 0x12
 758 00ab 01        		.uleb128 0x1
 759 00ac 58        		.uleb128 0x58
 760 00ad 0B        		.uleb128 0xb
 761 00ae 59        		.uleb128 0x59
 762 00af 0B        		.uleb128 0xb
 763 00b0 00        		.byte	0x0
 764 00b1 00        		.byte	0x0
 765 00b2 0D        		.uleb128 0xd
 766 00b3 01        		.uleb128 0x1
 767 00b4 01        		.byte	0x1
 768 00b5 49        		.uleb128 0x49
 769 00b6 13        		.uleb128 0x13
 770 00b7 01        		.uleb128 0x1
 771 00b8 13        		.uleb128 0x13
 772 00b9 00        		.byte	0x0
 773 00ba 00        		.byte	0x0
 774 00bb 0E        		.uleb128 0xe
 775 00bc 21        		.uleb128 0x21
 776 00bd 00        		.byte	0x0
 777 00be 49        		.uleb128 0x49
 778 00bf 13        		.uleb128 0x13
 779 00c0 2F        		.uleb128 0x2f
 780 00c1 0B        		.uleb128 0xb
 781 00c2 00        		.byte	0x0
 782 00c3 00        		.byte	0x0
 783 00c4 0F        		.uleb128 0xf
 784 00c5 24        		.uleb128 0x24
 785 00c6 00        		.byte	0x0
 786 00c7 0B        		.uleb128 0xb
 787 00c8 0B        		.uleb128 0xb
 788 00c9 3E        		.uleb128 0x3e
 789 00ca 0B        		.uleb128 0xb
 790 00cb 00        		.byte	0x0
 791 00cc 00        		.byte	0x0
 792 00cd 10        		.uleb128 0x10
 793 00ce 34        		.uleb128 0x34
GAS LISTING C:\users\mohammadreza\Temp/ccizdtz6.s 			page 15


 794 00cf 00        		.byte	0x0
 795 00d0 03        		.uleb128 0x3
 796 00d1 0E        		.uleb128 0xe
 797 00d2 3A        		.uleb128 0x3a
 798 00d3 0B        		.uleb128 0xb
 799 00d4 3B        		.uleb128 0x3b
 800 00d5 0B        		.uleb128 0xb
 801 00d6 49        		.uleb128 0x49
 802 00d7 13        		.uleb128 0x13
 803 00d8 3F        		.uleb128 0x3f
 804 00d9 0C        		.uleb128 0xc
 805 00da 3C        		.uleb128 0x3c
 806 00db 0C        		.uleb128 0xc
 807 00dc 00        		.byte	0x0
 808 00dd 00        		.byte	0x0
 809 00de 11        		.uleb128 0x11
 810 00df 34        		.uleb128 0x34
 811 00e0 00        		.byte	0x0
 812 00e1 03        		.uleb128 0x3
 813 00e2 0E        		.uleb128 0xe
 814 00e3 3A        		.uleb128 0x3a
 815 00e4 0B        		.uleb128 0xb
 816 00e5 3B        		.uleb128 0x3b
 817 00e6 0B        		.uleb128 0xb
 818 00e7 49        		.uleb128 0x49
 819 00e8 13        		.uleb128 0x13
 820 00e9 3F        		.uleb128 0x3f
 821 00ea 0C        		.uleb128 0xc
 822 00eb 02        		.uleb128 0x2
 823 00ec 0A        		.uleb128 0xa
 824 00ed 00        		.byte	0x0
 825 00ee 00        		.byte	0x0
 826 00ef 12        		.uleb128 0x12
 827 00f0 35        		.uleb128 0x35
 828 00f1 00        		.byte	0x0
 829 00f2 49        		.uleb128 0x49
 830 00f3 13        		.uleb128 0x13
 831 00f4 00        		.byte	0x0
 832 00f5 00        		.byte	0x0
 833 00f6 13        		.uleb128 0x13
 834 00f7 34        		.uleb128 0x34
 835 00f8 00        		.byte	0x0
 836 00f9 03        		.uleb128 0x3
 837 00fa 08        		.uleb128 0x8
 838 00fb 3A        		.uleb128 0x3a
 839 00fc 0B        		.uleb128 0xb
 840 00fd 3B        		.uleb128 0x3b
 841 00fe 0B        		.uleb128 0xb
 842 00ff 49        		.uleb128 0x49
 843 0100 13        		.uleb128 0x13
 844 0101 3F        		.uleb128 0x3f
 845 0102 0C        		.uleb128 0xc
 846 0103 02        		.uleb128 0x2
 847 0104 0A        		.uleb128 0xa
 848 0105 00        		.byte	0x0
 849 0106 00        		.byte	0x0
 850 0107 00        		.byte	0x0
GAS LISTING C:\users\mohammadreza\Temp/ccizdtz6.s 			page 16


 851               		.section	.debug_pubnames,"",@progbits
 852 0000 AF00 0000 		.long	0xaf
 853 0004 0200      		.word	0x2
 854 0006 0000 0000 		.long	.Ldebug_info0
 855 000a E501 0000 		.long	0x1e5
 856 000e BE00 0000 		.long	0xbe
 857 0012 665F 4C6F 		.string	"f_LockUnLock"
 857      636B 556E 
 857      4C6F 636B 
 857      00
 858 001f D200 0000 		.long	0xd2
 859 0023 665F 4C6F 		.string	"f_LockIdle"
 859      636B 4964 
 859      6C65 00
 860 002e E200 0000 		.long	0xe2
 861 0032 665F 4C6F 		.string	"f_LockLock"
 861      636B 4C6F 
 861      636B 00
 862 003d F600 0000 		.long	0xf6
 863 0041 665F 4C6F 		.string	"f_LockFSM"
 863      636B 4653 
 863      4D00 
 864 004b 3801 0000 		.long	0x138
 865 004f 665F 4170 		.string	"f_Applic"
 865      706C 6963 
 865      00
 866 0058 4C01 0000 		.long	0x14c
 867 005c 6D79 5F41 		.string	"my_Applic"
 867      7070 6C69 
 867      6300 
 868 0066 6001 0000 		.long	0x160
 869 006a 665F 496E 		.string	"f_Init_Applic"
 869      6974 5F41 
 869      7070 6C69 
 869      6300 
 870 0078 9401 0000 		.long	0x194
 871 007c 7374 6174 		.string	"state_Lock"
 871      655F 4C6F 
 871      636B 00
 872 0087 AB01 0000 		.long	0x1ab
 873 008b 765F 5365 		.string	"v_ServoLock"
 873      7276 6F4C 
 873      6F63 6B00 
 874 0097 C201 0000 		.long	0x1c2
 875 009b 765F 5365 		.string	"v_ServoUnLock"
 875      7276 6F55 
 875      6E4C 6F63 
 875      6B00 
 876 00a9 D401 0000 		.long	0x1d4
 877 00ad 6300      		.string	"c"
 878 00af 0000 0000 		.long	0x0
 879               		.section	.debug_aranges,"",@progbits
 880 0000 1C00 0000 		.long	0x1c
 881 0004 0200      		.word	0x2
 882 0006 0000 0000 		.long	.Ldebug_info0
 883 000a 04        		.byte	0x4
 884 000b 00        		.byte	0x0
GAS LISTING C:\users\mohammadreza\Temp/ccizdtz6.s 			page 17


 885 000c 0000      		.word	0x0
 886 000e 0000      		.word	0x0
 887 0010 0000 0000 		.long	.Ltext0
 888 0014 3201 0000 		.long	.Letext0-.Ltext0
 889 0018 0000 0000 		.long	0x0
 890 001c 0000 0000 		.long	0x0
 891               		.section	.debug_line
 892 0000 1D02 0000 		.long	.LELT0-.LSLT0
 893               	.LSLT0:
 894 0004 0200      		.word	0x2
 895 0006 8600 0000 		.long	.LELTP0-.LASLTP0
 896               	.LASLTP0:
 897 000a 01        		.byte	0x1
 898 000b 01        		.byte	0x1
 899 000c F6        		.byte	0xf6
 900 000d F5        		.byte	0xf5
 901 000e 0A        		.byte	0xa
 902 000f 00        		.byte	0x0
 903 0010 01        		.byte	0x1
 904 0011 01        		.byte	0x1
 905 0012 01        		.byte	0x1
 906 0013 01        		.byte	0x1
 907 0014 00        		.byte	0x0
 908 0015 00        		.byte	0x0
 909 0016 00        		.byte	0x0
 910 0017 01        		.byte	0x1
 911 0018 7372 632F 		.ascii	"src/applic"
 911      6170 706C 
 911      6963 
 912 0022 00        		.byte	0
 913 0023 7372 632F 		.ascii	"src/applic/../includes"
 913      6170 706C 
 913      6963 2F2E 
 913      2E2F 696E 
 913      636C 7564 
 914 0039 00        		.byte	0
 915 003a 7372 632F 		.ascii	"src/applic/../periphint"
 915      6170 706C 
 915      6963 2F2E 
 915      2E2F 7065 
 915      7269 7068 
 916 0051 00        		.byte	0
 917 0052 00        		.byte	0x0
 918 0053 6170 706C 		.string	"applic.c"
 918      6963 2E63 
 918      00
 919 005c 01        		.uleb128 0x1
 920 005d 00        		.uleb128 0x0
 921 005e 00        		.uleb128 0x0
 922 005f 2E2E 2F69 		.string	"../includes/types.h"
 922      6E63 6C75 
 922      6465 732F 
 922      7479 7065 
 922      732E 6800 
 923 0073 01        		.uleb128 0x1
 924 0074 00        		.uleb128 0x0
 925 0075 00        		.uleb128 0x0
GAS LISTING C:\users\mohammadreza\Temp/ccizdtz6.s 			page 18


 926 0076 2E2E 2F70 		.string	"../periphint/Timer0.h"
 926      6572 6970 
 926      6869 6E74 
 926      2F54 696D 
 926      6572 302E 
 927 008c 01        		.uleb128 0x1
 928 008d 00        		.uleb128 0x0
 929 008e 00        		.uleb128 0x0
 930 008f 00        		.byte	0x0
 931               	.LELTP0:
 932 0090 00        		.byte	0x0
 933 0091 05        		.uleb128 0x5
 934 0092 02        		.byte	0x2
 935 0093 0000 0000 		.long	.LM1
 936 0097 95        		.byte	0x95
 937 0098 00        		.byte	0x0
 938 0099 05        		.uleb128 0x5
 939 009a 02        		.byte	0x2
 940 009b 0000 0000 		.long	.LM2
 941 009f 15        		.byte	0x15
 942 00a0 00        		.byte	0x0
 943 00a1 05        		.uleb128 0x5
 944 00a2 02        		.byte	0x2
 945 00a3 0000 0000 		.long	.LM3
 946 00a7 15        		.byte	0x15
 947 00a8 00        		.byte	0x0
 948 00a9 05        		.uleb128 0x5
 949 00aa 02        		.byte	0x2
 950 00ab 0000 0000 		.long	.LM4
 951 00af 16        		.byte	0x16
 952 00b0 00        		.byte	0x0
 953 00b1 05        		.uleb128 0x5
 954 00b2 02        		.byte	0x2
 955 00b3 0000 0000 		.long	.LM5
 956 00b7 15        		.byte	0x15
 957 00b8 00        		.byte	0x0
 958 00b9 05        		.uleb128 0x5
 959 00ba 02        		.byte	0x2
 960 00bb 0000 0000 		.long	.LM6
 961 00bf 03        		.byte	0x3
 962 00c0 70        		.sleb128 -16
 963 00c1 01        		.byte	0x1
 964 00c2 00        		.byte	0x0
 965 00c3 05        		.uleb128 0x5
 966 00c4 02        		.byte	0x2
 967 00c5 0000 0000 		.long	.LM7
 968 00c9 1B        		.byte	0x1b
 969 00ca 00        		.byte	0x0
 970 00cb 05        		.uleb128 0x5
 971 00cc 02        		.byte	0x2
 972 00cd 0000 0000 		.long	.LM8
 973 00d1 15        		.byte	0x15
 974 00d2 00        		.byte	0x0
 975 00d3 05        		.uleb128 0x5
 976 00d4 02        		.byte	0x2
 977 00d5 0000 0000 		.long	.LM9
 978 00d9 03        		.byte	0x3
GAS LISTING C:\users\mohammadreza\Temp/ccizdtz6.s 			page 19


 979 00da 70        		.sleb128 -16
 980 00db 01        		.byte	0x1
 981 00dc 00        		.byte	0x0
 982 00dd 05        		.uleb128 0x5
 983 00de 02        		.byte	0x2
 984 00df 0000 0000 		.long	.LM10
 985 00e3 15        		.byte	0x15
 986 00e4 00        		.byte	0x0
 987 00e5 05        		.uleb128 0x5
 988 00e6 02        		.byte	0x2
 989 00e7 0000 0000 		.long	.LM11
 990 00eb 15        		.byte	0x15
 991 00ec 00        		.byte	0x0
 992 00ed 05        		.uleb128 0x5
 993 00ee 02        		.byte	0x2
 994 00ef 0000 0000 		.long	.LM12
 995 00f3 16        		.byte	0x16
 996 00f4 00        		.byte	0x0
 997 00f5 05        		.uleb128 0x5
 998 00f6 02        		.byte	0x2
 999 00f7 0000 0000 		.long	.LM13
 1000 00fb 15        		.byte	0x15
 1001 00fc 00        		.byte	0x0
 1002 00fd 05        		.uleb128 0x5
 1003 00fe 02        		.byte	0x2
 1004 00ff 0000 0000 		.long	.LM14
 1005 0103 2B        		.byte	0x2b
 1006 0104 00        		.byte	0x0
 1007 0105 05        		.uleb128 0x5
 1008 0106 02        		.byte	0x2
 1009 0107 0000 0000 		.long	.LM15
 1010 010b 17        		.byte	0x17
 1011 010c 00        		.byte	0x0
 1012 010d 05        		.uleb128 0x5
 1013 010e 02        		.byte	0x2
 1014 010f 0000 0000 		.long	.LM16
 1015 0113 46        		.byte	0x46
 1016 0114 00        		.byte	0x0
 1017 0115 05        		.uleb128 0x5
 1018 0116 02        		.byte	0x2
 1019 0117 0000 0000 		.long	.LM17
 1020 011b 03        		.byte	0x3
 1021 011c 52        		.sleb128 -46
 1022 011d 01        		.byte	0x1
 1023 011e 00        		.byte	0x0
 1024 011f 05        		.uleb128 0x5
 1025 0120 02        		.byte	0x2
 1026 0121 0000 0000 		.long	.LM18
 1027 0125 15        		.byte	0x15
 1028 0126 00        		.byte	0x0
 1029 0127 05        		.uleb128 0x5
 1030 0128 02        		.byte	0x2
 1031 0129 0000 0000 		.long	.LM19
 1032 012d 17        		.byte	0x17
 1033 012e 00        		.byte	0x0
 1034 012f 05        		.uleb128 0x5
 1035 0130 02        		.byte	0x2
GAS LISTING C:\users\mohammadreza\Temp/ccizdtz6.s 			page 20


 1036 0131 0000 0000 		.long	.LM20
 1037 0135 16        		.byte	0x16
 1038 0136 00        		.byte	0x0
 1039 0137 05        		.uleb128 0x5
 1040 0138 02        		.byte	0x2
 1041 0139 0000 0000 		.long	.LM21
 1042 013d 16        		.byte	0x16
 1043 013e 00        		.byte	0x0
 1044 013f 05        		.uleb128 0x5
 1045 0140 02        		.byte	0x2
 1046 0141 0000 0000 		.long	.LM22
 1047 0145 30        		.byte	0x30
 1048 0146 00        		.byte	0x0
 1049 0147 05        		.uleb128 0x5
 1050 0148 02        		.byte	0x2
 1051 0149 0000 0000 		.long	.LM23
 1052 014d 17        		.byte	0x17
 1053 014e 00        		.byte	0x0
 1054 014f 05        		.uleb128 0x5
 1055 0150 02        		.byte	0x2
 1056 0151 0000 0000 		.long	.LM24
 1057 0155 03        		.byte	0x3
 1058 0156 45        		.sleb128 -59
 1059 0157 01        		.byte	0x1
 1060 0158 00        		.byte	0x0
 1061 0159 05        		.uleb128 0x5
 1062 015a 02        		.byte	0x2
 1063 015b 0000 0000 		.long	.LM25
 1064 015f 35        		.byte	0x35
 1065 0160 00        		.byte	0x0
 1066 0161 05        		.uleb128 0x5
 1067 0162 02        		.byte	0x2
 1068 0163 0000 0000 		.long	.LM26
 1069 0167 16        		.byte	0x16
 1070 0168 00        		.byte	0x0
 1071 0169 05        		.uleb128 0x5
 1072 016a 02        		.byte	0x2
 1073 016b 0000 0000 		.long	.LM27
 1074 016f 03        		.byte	0x3
 1075 0170 5D        		.sleb128 -35
 1076 0171 01        		.byte	0x1
 1077 0172 00        		.byte	0x0
 1078 0173 05        		.uleb128 0x5
 1079 0174 02        		.byte	0x2
 1080 0175 0000 0000 		.long	.LM28
 1081 0179 3F        		.byte	0x3f
 1082 017a 00        		.byte	0x0
 1083 017b 05        		.uleb128 0x5
 1084 017c 02        		.byte	0x2
 1085 017d 0000 0000 		.long	.LM29
 1086 0181 15        		.byte	0x15
 1087 0182 00        		.byte	0x0
 1088 0183 05        		.uleb128 0x5
 1089 0184 02        		.byte	0x2
 1090 0185 0000 0000 		.long	.LM30
 1091 0189 17        		.byte	0x17
 1092 018a 00        		.byte	0x0
GAS LISTING C:\users\mohammadreza\Temp/ccizdtz6.s 			page 21


 1093 018b 05        		.uleb128 0x5
 1094 018c 02        		.byte	0x2
 1095 018d 0000 0000 		.long	.LM31
 1096 0191 16        		.byte	0x16
 1097 0192 00        		.byte	0x0
 1098 0193 05        		.uleb128 0x5
 1099 0194 02        		.byte	0x2
 1100 0195 0000 0000 		.long	.LM32
 1101 0199 16        		.byte	0x16
 1102 019a 00        		.byte	0x0
 1103 019b 05        		.uleb128 0x5
 1104 019c 02        		.byte	0x2
 1105 019d 0000 0000 		.long	.LM33
 1106 01a1 03        		.byte	0x3
 1107 01a2 B77F      		.sleb128 -73
 1108 01a4 01        		.byte	0x1
 1109 01a5 00        		.byte	0x0
 1110 01a6 05        		.uleb128 0x5
 1111 01a7 02        		.byte	0x2
 1112 01a8 0000 0000 		.long	.LM34
 1113 01ac 16        		.byte	0x16
 1114 01ad 00        		.byte	0x0
 1115 01ae 05        		.uleb128 0x5
 1116 01af 02        		.byte	0x2
 1117 01b0 0000 0000 		.long	.LM35
 1118 01b4 15        		.byte	0x15
 1119 01b5 00        		.byte	0x0
 1120 01b6 05        		.uleb128 0x5
 1121 01b7 02        		.byte	0x2
 1122 01b8 0000 0000 		.long	.LM36
 1123 01bc 0B        		.byte	0xb
 1124 01bd 00        		.byte	0x0
 1125 01be 05        		.uleb128 0x5
 1126 01bf 02        		.byte	0x2
 1127 01c0 0000 0000 		.long	.LM37
 1128 01c4 15        		.byte	0x15
 1129 01c5 00        		.byte	0x0
 1130 01c6 05        		.uleb128 0x5
 1131 01c7 02        		.byte	0x2
 1132 01c8 0000 0000 		.long	.LM38
 1133 01cc 15        		.byte	0x15
 1134 01cd 00        		.byte	0x0
 1135 01ce 05        		.uleb128 0x5
 1136 01cf 02        		.byte	0x2
 1137 01d0 0000 0000 		.long	.LM39
 1138 01d4 15        		.byte	0x15
 1139 01d5 00        		.byte	0x0
 1140 01d6 05        		.uleb128 0x5
 1141 01d7 02        		.byte	0x2
 1142 01d8 0000 0000 		.long	.LM40
 1143 01dc 15        		.byte	0x15
 1144 01dd 00        		.byte	0x0
 1145 01de 05        		.uleb128 0x5
 1146 01df 02        		.byte	0x2
 1147 01e0 0000 0000 		.long	.LM41
 1148 01e4 03        		.byte	0x3
 1149 01e5 6B        		.sleb128 -21
GAS LISTING C:\users\mohammadreza\Temp/ccizdtz6.s 			page 22


 1150 01e6 01        		.byte	0x1
 1151 01e7 00        		.byte	0x0
 1152 01e8 05        		.uleb128 0x5
 1153 01e9 02        		.byte	0x2
 1154 01ea 0000 0000 		.long	.LM42
 1155 01ee 16        		.byte	0x16
 1156 01ef 00        		.byte	0x0
 1157 01f0 05        		.uleb128 0x5
 1158 01f1 02        		.byte	0x2
 1159 01f2 0000 0000 		.long	.LM43
 1160 01f6 16        		.byte	0x16
 1161 01f7 00        		.byte	0x0
 1162 01f8 05        		.uleb128 0x5
 1163 01f9 02        		.byte	0x2
 1164 01fa 0000 0000 		.long	.LM44
 1165 01fe 17        		.byte	0x17
 1166 01ff 00        		.byte	0x0
 1167 0200 05        		.uleb128 0x5
 1168 0201 02        		.byte	0x2
 1169 0202 0000 0000 		.long	.LM45
 1170 0206 17        		.byte	0x17
 1171 0207 00        		.byte	0x0
 1172 0208 05        		.uleb128 0x5
 1173 0209 02        		.byte	0x2
 1174 020a 0000 0000 		.long	.LM46
 1175 020e 15        		.byte	0x15
 1176 020f 00        		.byte	0x0
 1177 0210 05        		.uleb128 0x5
 1178 0211 02        		.byte	0x2
 1179 0212 0000 0000 		.long	.LM47
 1180 0216 16        		.byte	0x16
 1181 0217 00        		.byte	0x0
 1182 0218 05        		.uleb128 0x5
 1183 0219 02        		.byte	0x2
 1184 021a 0000 0000 		.long	.Letext0
 1185 021e 00        		.byte	0x0
 1186 021f 01        		.uleb128 0x1
 1187 0220 01        		.byte	0x1
 1188               	.LELT0:
 1189 0221 1600 0000 		.section	.debug_str,"MS",@progbits,1
 1189      0200 1000 
 1189      0000 0101 
 1189      FB0E 0A00 
 1189      0101 0101 
 1190               	.LASF16:
 1191 0000 7479 7065 		.string	"type_Lock_state"
 1191      5F4C 6F63 
 1191      6B5F 7374 
 1191      6174 6500 
 1192               	.LASF12:
 1193 0010 7374 6174 		.string	"state_IDLE"
 1193      655F 4944 
 1193      4C45 00
 1194               	.LASF25:
 1195 001b 765F 5365 		.string	"v_ServoUnLock"
 1195      7276 6F55 
 1195      6E4C 6F63 
GAS LISTING C:\users\mohammadreza\Temp/ccizdtz6.s 			page 23


 1195      6B00 
 1196               	.LASF15:
 1197 0029 7374 6174 		.string	"state_WaitTO2UnLock"
 1197      655F 5761 
 1197      6974 544F 
 1197      3255 6E4C 
 1197      6F63 6B00 
 1198               	.LASF11:
 1199 003d 494E 5431 		.string	"INT16U"
 1199      3655 00
 1200               	.LASF1:
 1201 0044 756E 7369 		.string	"unsigned char"
 1201      676E 6564 
 1201      2063 6861 
 1201      7200 
 1202               	.LASF28:
 1203 0052 5A3A 5C68 		.ascii	"Z:\\ho"
 1203      6F
 1204 0057 6D65 5C6D 		.string	"me\\mohammadreza\\temo\\Simple-AVR-OS-plus-some-improvement-\\avr_os"
 1204      6F68 616D 
 1204      6D61 6472 
 1204      657A 615C 
 1204      7465 6D6F 
 1205               	.LASF4:
 1206 0098 6C6F 6E67 		.string	"long unsigned int"
 1206      2075 6E73 
 1206      6967 6E65 
 1206      6420 696E 
 1206      7400 
 1207               	.LASF8:
 1208 00aa 7368 6F72 		.string	"short unsigned int"
 1208      7420 756E 
 1208      7369 676E 
 1208      6564 2069 
 1208      6E74 00
 1209               	.LASF26:
 1210 00bd 474E 5520 		.string	"GNU C 4.3.3"
 1210      4320 342E 
 1210      332E 3300 
 1211               	.LASF17:
 1212 00c9 665F 4C6F 		.string	"f_LockUnLock"
 1212      636B 556E 
 1212      4C6F 636B 
 1212      00
 1213               	.LASF21:
 1214 00d6 665F 496E 		.string	"f_Init_Applic"
 1214      6974 5F41 
 1214      7070 6C69 
 1214      6300 
 1215               	.LASF22:
 1216 00e4 765F 5377 		.string	"v_SwTimer_mS"
 1216      5469 6D65 
 1216      725F 6D53 
 1216      00
 1217               	.LASF13:
 1218 00f1 7374 6174 		.string	"state_WaitTO2Lock"
 1218      655F 5761 
GAS LISTING C:\users\mohammadreza\Temp/ccizdtz6.s 			page 24


 1218      6974 544F 
 1218      324C 6F63 
 1218      6B00 
 1219               	.LASF2:
 1220 0103 756E 7369 		.string	"unsigned int"
 1220      676E 6564 
 1220      2069 6E74 
 1220      00
 1221               	.LASF10:
 1222 0110 494E 5438 		.string	"INT8U"
 1222      5500 
 1223               	.LASF6:
 1224 0116 6C6F 6E67 		.string	"long long unsigned int"
 1224      206C 6F6E 
 1224      6720 756E 
 1224      7369 676E 
 1224      6564 2069 
 1225               	.LASF23:
 1226 012d 7374 6174 		.string	"state_Lock"
 1226      655F 4C6F 
 1226      636B 00
 1227               	.LASF18:
 1228 0138 665F 4C6F 		.string	"f_LockLock"
 1228      636B 4C6F 
 1228      636B 00
 1229               	.LASF27:
 1230 0143 7372 632F 		.string	"src/applic/applic.c"
 1230      6170 706C 
 1230      6963 2F61 
 1230      7070 6C69 
 1230      632E 6300 
 1231               	.LASF5:
 1232 0157 6C6F 6E67 		.string	"long long int"
 1232      206C 6F6E 
 1232      6720 696E 
 1232      7400 
 1233               	.LASF30:
 1234 0165 665F 4C6F 		.string	"f_LockFSM"
 1234      636B 4653 
 1234      4D00 
 1235               	.LASF7:
 1236 016f 6368 6172 		.string	"char"
 1236      00
 1237               	.LASF14:
 1238 0174 7374 6174 		.string	"state_ARM"
 1238      655F 4152 
 1238      4D00 
 1239               	.LASF9:
 1240 017e 7368 6F72 		.string	"short int"
 1240      7420 696E 
 1240      7400 
 1241               	.LASF20:
 1242 0188 6D79 5F41 		.string	"my_Applic"
 1242      7070 6C69 
 1242      6300 
 1243               	.LASF24:
 1244 0192 765F 5365 		.string	"v_ServoLock"
GAS LISTING C:\users\mohammadreza\Temp/ccizdtz6.s 			page 25


 1244      7276 6F4C 
 1244      6F63 6B00 
 1245               	.LASF3:
 1246 019e 6C6F 6E67 		.string	"long int"
 1246      2069 6E74 
 1246      00
 1247               	.LASF29:
 1248 01a7 665F 4C6F 		.string	"f_LockIdle"
 1248      636B 4964 
 1248      6C65 00
 1249               	.LASF0:
 1250 01b2 7369 676E 		.string	"signed char"
 1250      6564 2063 
 1250      6861 7200 
 1251               	.LASF31:
 1252 01be 765F 7374 		.string	"v_status"
 1252      6174 7573 
 1252      00
 1253               	.LASF19:
 1254 01c7 665F 4170 		.string	"f_Applic"
 1254      706C 6963 
 1254      00
 1255               	.global __do_copy_data
 1256               	.global __do_clear_bss
GAS LISTING C:\users\mohammadreza\Temp/ccizdtz6.s 			page 26


DEFINED SYMBOLS
                            *ABS*:00000000 applic.c
C:\users\mohammadreza\Temp/ccizdtz6.s:2      *ABS*:0000003f __SREG__
C:\users\mohammadreza\Temp/ccizdtz6.s:3      *ABS*:0000003e __SP_H__
C:\users\mohammadreza\Temp/ccizdtz6.s:4      *ABS*:0000003d __SP_L__
C:\users\mohammadreza\Temp/ccizdtz6.s:5      *ABS*:00000034 __CCP__
C:\users\mohammadreza\Temp/ccizdtz6.s:6      *ABS*:00000000 __tmp_reg__
C:\users\mohammadreza\Temp/ccizdtz6.s:7      *ABS*:00000001 __zero_reg__
C:\users\mohammadreza\Temp/ccizdtz6.s:22     .text:00000000 f_LockUnLock
                            *COM*:00000001 v_ServoUnLock
C:\users\mohammadreza\Temp/ccizdtz6.s:49     .text:0000001a f_LockIdle
C:\users\mohammadreza\Temp/ccizdtz6.s:69     .text:00000024 f_LockLock
                            *COM*:00000001 v_ServoLock
C:\users\mohammadreza\Temp/ccizdtz6.s:92     .text:0000003e f_LockFSM
                            *COM*:00000002 state_Lock
C:\users\mohammadreza\Temp/ccizdtz6.s:196    .text:000000f2 f_Applic
C:\users\mohammadreza\Temp/ccizdtz6.s:210    .text:000000f8 my_Applic
C:\users\mohammadreza\Temp/ccizdtz6.s:261    .bss:00000000 c
C:\users\mohammadreza\Temp/ccizdtz6.s:232    .text:00000110 f_Init_Applic

UNDEFINED SYMBOLS
f_PWM1Enable
f_PWM1Set
f_Uart_PutStr
f_SCard_CheckCardIn
v_SwTimer_mS
f_Delay_ms
f_InitPWM1
__do_copy_data
__do_clear_bss
