GAS LISTING C:\users\mohammadreza\Temp/ccazr1lT.s 			page 1


   1               		.file	"applic.c"
   2               	__SREG__ = 0x3f
   3               	__SP_H__ = 0x3e
   4               	__SP_L__ = 0x3d
   5               	__CCP__  = 0x34
   6               	__tmp_reg__ = 0
   7               	__zero_reg__ = 1
   8               		.section	.debug_abbrev,"",@progbits
   9               	.Ldebug_abbrev0:
  10               		.section	.debug_info,"",@progbits
  11               	.Ldebug_info0:
  12               		.section	.debug_line,"",@progbits
  13               	.Ldebug_line0:
  14               		.text
  15               	.Ltext0:
  16               	.global	applications_reducer
  17               		.type	applications_reducer, @function
  18               	applications_reducer:
  19               	.LFB2:
  20               	.LM1:
  21               	.LVL0:
  22               	/* prologue: function */
  23               	/* frame size = 0 */
  24               	.LM2:
  25 0000 E82F      		mov r30,r24
  26 0002 F0E0      		ldi r31,lo8(0)
  27 0004 8091 0000 		lds r24,app_subscription
  28               	.LVL1:
  29 0008 90E0      		ldi r25,lo8(0)
  30 000a 0E2E      		mov r0,r30
  31 000c 00C0      		rjmp 2f
  32 000e 9595      	1:	asr r25
  33 0010 8795      		ror r24
  34 0012 0A94      	2:	dec r0
  35 0014 02F4      		brpl 1b
  36 0016 80FF      		sbrs r24,0
  37 0018 0895      		ret
  38               	.L5:
  39               	.LM3:
  40 001a EE0F      		lsl r30
  41 001c FF1F      		rol r31
  42 001e E050      		subi r30,lo8(-(f_Applic_function))
  43 0020 F040      		sbci r31,hi8(-(f_Applic_function))
  44 0022 0190      		ld __tmp_reg__,Z+
  45 0024 F081      		ld r31,Z
  46 0026 E02D      		mov r30,__tmp_reg__
  47 0028 0995      		icall
  48 002a 0895      		ret
  49               	.LFE2:
  50               		.size	applications_reducer, .-applications_reducer
  51               	.global	my_Applic3
  52               		.type	my_Applic3, @function
  53               	my_Applic3:
  54               	.LFB6:
  55               	.LM4:
  56               	/* prologue: function */
  57               	/* frame size = 0 */
GAS LISTING C:\users\mohammadreza\Temp/ccazr1lT.s 			page 2


  58               	/* epilogue start */
  59               	.LM5:
  60 002c 0895      		ret
  61               	.LFE6:
  62               		.size	my_Applic3, .-my_Applic3
  63               	.global	my_Applic4
  64               		.type	my_Applic4, @function
  65               	my_Applic4:
  66               	.LFB7:
  67               	.LM6:
  68               	/* prologue: function */
  69               	/* frame size = 0 */
  70               	/* epilogue start */
  71               	.LM7:
  72 002e 0895      		ret
  73               	.LFE7:
  74               		.size	my_Applic4, .-my_Applic4
  75               	.global	my_Applic5
  76               		.type	my_Applic5, @function
  77               	my_Applic5:
  78               	.LFB8:
  79               	.LM8:
  80               	/* prologue: function */
  81               	/* frame size = 0 */
  82               	/* epilogue start */
  83               	.LM9:
  84 0030 0895      		ret
  85               	.LFE8:
  86               		.size	my_Applic5, .-my_Applic5
  87               	.global	my_Applic6
  88               		.type	my_Applic6, @function
  89               	my_Applic6:
  90               	.LFB9:
  91               	.LM10:
  92               	/* prologue: function */
  93               	/* frame size = 0 */
  94               	/* epilogue start */
  95               	.LM11:
  96 0032 0895      		ret
  97               	.LFE9:
  98               		.size	my_Applic6, .-my_Applic6
  99               	.global	my_Applic7
 100               		.type	my_Applic7, @function
 101               	my_Applic7:
 102               	.LFB10:
 103               	.LM12:
 104               	/* prologue: function */
 105               	/* frame size = 0 */
 106               	/* epilogue start */
 107               	.LM13:
 108 0034 0895      		ret
 109               	.LFE10:
 110               		.size	my_Applic7, .-my_Applic7
 111               		.data
 112               	.LC0:
 113 0000 0A55 6E6C 		.string	"\nUnlock\n"
 113      6F63 6B0A 
GAS LISTING C:\users\mohammadreza\Temp/ccazr1lT.s 			page 3


 113      00
 114               		.text
 115               	.global	f_LockUnLock
 116               		.type	f_LockUnLock, @function
 117               	f_LockUnLock:
 118               	.LFB14:
 119               	.LM14:
 120               	/* prologue: function */
 121               	/* frame size = 0 */
 122               	.LM15:
 123 0036 80E0      		ldi r24,lo8(0)
 124 0038 0E94 0000 		call f_PWM1Enable
 125               	.LM16:
 126 003c 6091 0000 		lds r22,v_ServoUnLock
 127 0040 80E0      		ldi r24,lo8(0)
 128 0042 0E94 0000 		call f_PWM1Set
 129               	.LM17:
 130 0046 80E0      		ldi r24,lo8(.LC0)
 131 0048 90E0      		ldi r25,hi8(.LC0)
 132 004a 0E94 0000 		call f_Uart_PutStr
 133               	/* epilogue start */
 134               	.LM18:
 135 004e 0895      		ret
 136               	.LFE14:
 137               		.size	f_LockUnLock, .-f_LockUnLock
 138               		.data
 139               	.LC1:
 140 0009 0A4C 6F63 		.string	"\nLock Idle\n"
 140      6B20 4964 
 140      6C65 0A00 
 141               		.text
 142               	.global	f_LockIdle
 143               		.type	f_LockIdle, @function
 144               	f_LockIdle:
 145               	.LFB13:
 146               	.LM19:
 147               	/* prologue: function */
 148               	/* frame size = 0 */
 149               	.LM20:
 150 0050 80E0      		ldi r24,lo8(.LC1)
 151 0052 90E0      		ldi r25,hi8(.LC1)
 152 0054 0E94 0000 		call f_Uart_PutStr
 153               	/* epilogue start */
 154               	.LM21:
 155 0058 0895      		ret
 156               	.LFE13:
 157               		.size	f_LockIdle, .-f_LockIdle
 158               		.data
 159               	.LC2:
 160 0015 0A4C 6F63 		.string	"\nLock\n"
 160      6B0A 00
 161               		.text
 162               	.global	f_LockLock
 163               		.type	f_LockLock, @function
 164               	f_LockLock:
 165               	.LFB12:
 166               	.LM22:
GAS LISTING C:\users\mohammadreza\Temp/ccazr1lT.s 			page 4


 167               	/* prologue: function */
 168               	/* frame size = 0 */
 169               	.LM23:
 170 005a 80E0      		ldi r24,lo8(0)
 171 005c 0E94 0000 		call f_PWM1Enable
 172               	.LM24:
 173 0060 6091 0000 		lds r22,v_ServoLock
 174 0064 80E0      		ldi r24,lo8(0)
 175 0066 0E94 0000 		call f_PWM1Set
 176               	.LM25:
 177 006a 80E0      		ldi r24,lo8(.LC2)
 178 006c 90E0      		ldi r25,hi8(.LC2)
 179 006e 0E94 0000 		call f_Uart_PutStr
 180               	/* epilogue start */
 181               	.LM26:
 182 0072 0895      		ret
 183               	.LFE12:
 184               		.size	f_LockLock, .-f_LockLock
 185               	.global	f_LockFSM
 186               		.type	f_LockFSM, @function
 187               	f_LockFSM:
 188               	.LFB15:
 189               	.LM27:
 190               	/* prologue: function */
 191               	/* frame size = 0 */
 192               	.LM28:
 193 0074 8091 0000 		lds r24,state_Lock
 194 0078 9091 0000 		lds r25,(state_Lock)+1
 195 007c 8130      		cpi r24,1
 196 007e 9105      		cpc r25,__zero_reg__
 197 0080 01F0      		breq .L25
 198 0082 8130      		cpi r24,1
 199 0084 9105      		cpc r25,__zero_reg__
 200 0086 00F0      		brlo .L24
 201 0088 8230      		cpi r24,2
 202 008a 9105      		cpc r25,__zero_reg__
 203 008c 01F0      		breq .L26
 204 008e 0397      		sbiw r24,3
 205 0090 01F0      		breq .L31
 206               	.LM29:
 207 0092 1092 0000 		sts (state_Lock)+1,__zero_reg__
 208 0096 1092 0000 		sts state_Lock,__zero_reg__
 209               	.L29:
 210 009a 0895      		ret
 211               	.L24:
 212               	.LM30:
 213 009c 0E94 0000 		call f_SCard_CheckCardIn
 214               	.LM31:
 215 00a0 8230      		cpi r24,lo8(2)
 216 00a2 01F4      		brne .L29
 217               	.LM32:
 218 00a4 81E0      		ldi r24,lo8(1)
 219 00a6 90E0      		ldi r25,hi8(1)
 220 00a8 9093 0000 		sts (state_Lock)+1,r25
 221 00ac 8093 0000 		sts state_Lock,r24
 222               	.LM33:
 223 00b0 0E94 0000 		call f_LockLock
GAS LISTING C:\users\mohammadreza\Temp/ccazr1lT.s 			page 5


 224               	.LM34:
 225 00b4 88EB      		ldi r24,lo8(3000)
 226 00b6 9BE0      		ldi r25,hi8(3000)
 227 00b8 9093 0000 		sts (v_SwTimer_mS)+1,r25
 228 00bc 8093 0000 		sts v_SwTimer_mS,r24
 229 00c0 0895      		ret
 230               	.L31:
 231               	.LM35:
 232 00c2 8091 0000 		lds r24,v_SwTimer_mS
 233 00c6 9091 0000 		lds r25,(v_SwTimer_mS)+1
 234 00ca 892B      		or r24,r25
 235 00cc 01F4      		brne .L29
 236               	.LM36:
 237 00ce 1092 0000 		sts (state_Lock)+1,__zero_reg__
 238 00d2 1092 0000 		sts state_Lock,__zero_reg__
 239               	.LBB6:
 240               	.LBB7:
 241               	.LM37:
 242 00d6 80E0      		ldi r24,lo8(.LC1)
 243 00d8 90E0      		ldi r25,hi8(.LC1)
 244 00da 0E94 0000 		call f_Uart_PutStr
 245 00de 0895      		ret
 246               	.L25:
 247               	.LBE7:
 248               	.LBE6:
 249               	.LM38:
 250 00e0 8091 0000 		lds r24,v_SwTimer_mS
 251 00e4 9091 0000 		lds r25,(v_SwTimer_mS)+1
 252 00e8 892B      		or r24,r25
 253 00ea 01F4      		brne .L29
 254               	.LM39:
 255 00ec 82E0      		ldi r24,lo8(2)
 256 00ee 90E0      		ldi r25,hi8(2)
 257 00f0 9093 0000 		sts (state_Lock)+1,r25
 258 00f4 8093 0000 		sts state_Lock,r24
 259               	.LBB8:
 260               	.LBB9:
 261               	.LM40:
 262 00f8 80E0      		ldi r24,lo8(.LC1)
 263 00fa 90E0      		ldi r25,hi8(.LC1)
 264 00fc 0E94 0000 		call f_Uart_PutStr
 265 0100 0895      		ret
 266               	.L26:
 267               	.LBE9:
 268               	.LBE8:
 269               	.LM41:
 270 0102 0E94 0000 		call f_SCard_CheckCardIn
 271               	.LM42:
 272 0106 8230      		cpi r24,lo8(2)
 273 0108 01F4      		brne .L29
 274               	.LM43:
 275 010a 83E0      		ldi r24,lo8(3)
 276 010c 90E0      		ldi r25,hi8(3)
 277 010e 9093 0000 		sts (state_Lock)+1,r25
 278 0112 8093 0000 		sts state_Lock,r24
 279               	.LM44:
 280 0116 0E94 0000 		call f_LockUnLock
GAS LISTING C:\users\mohammadreza\Temp/ccazr1lT.s 			page 6


 281               	.LM45:
 282 011a 88EB      		ldi r24,lo8(3000)
 283 011c 9BE0      		ldi r25,hi8(3000)
 284 011e 9093 0000 		sts (v_SwTimer_mS)+1,r25
 285 0122 8093 0000 		sts v_SwTimer_mS,r24
 286 0126 0895      		ret
 287               	.LFE15:
 288               		.size	f_LockFSM, .-f_LockFSM
 289               	.global	f_Applic
 290               		.type	f_Applic, @function
 291               	f_Applic:
 292               	.LFB3:
 293               	.LM46:
 294               	/* prologue: function */
 295               	/* frame size = 0 */
 296               	.LM47:
 297 0128 0E94 0000 		call f_LockFSM
 298               	/* epilogue start */
 299               	.LM48:
 300 012c 0895      		ret
 301               	.LFE3:
 302               		.size	f_Applic, .-f_Applic
 303               	.global	f_Init_Applic
 304               		.type	f_Init_Applic, @function
 305               	f_Init_Applic:
 306               	.LFB11:
 307               	.LM49:
 308               	/* prologue: function */
 309               	/* frame size = 0 */
 310               	.LM50:
 311 012e 1092 0000 		sts (state_Lock)+1,__zero_reg__
 312 0132 1092 0000 		sts state_Lock,__zero_reg__
 313               	.LM51:
 314 0136 1092 0000 		sts (v_SwTimer_mS)+1,__zero_reg__
 315 013a 1092 0000 		sts v_SwTimer_mS,__zero_reg__
 316               	.LM52:
 317 013e 0E94 0000 		call f_InitPWM1
 318               	.LM53:
 319 0142 82E3      		ldi r24,lo8(50)
 320 0144 8093 0000 		sts v_ServoLock,r24
 321               	.LM54:
 322 0148 8EE1      		ldi r24,lo8(30)
 323 014a 8093 0000 		sts v_ServoUnLock,r24
 324               	/* epilogue start */
 325               	.LM55:
 326 014e 0895      		ret
 327               	.LFE11:
 328               		.size	f_Init_Applic, .-f_Init_Applic
 329               		.data
 330               	.LC3:
 331 001c 0A63 6F64 		.string	"\ncode 108a\n"
 331      6520 3130 
 331      3861 0A00 
 332               	.LC4:
 333 0028 0A63 6F64 		.string	"\ncode 113a\n"
 333      6520 3131 
 333      3361 0A00 
GAS LISTING C:\users\mohammadreza\Temp/ccazr1lT.s 			page 7


 334               		.text
 335               	.global	my_Applic2
 336               		.type	my_Applic2, @function
 337               	my_Applic2:
 338               	.LFB5:
 339               	.LM56:
 340               	/* prologue: function */
 341               	/* frame size = 0 */
 342               	.LM57:
 343 0150 80E0      		ldi r24,lo8(.LC3)
 344 0152 90E0      		ldi r25,hi8(.LC3)
 345 0154 0E94 0000 		call f_Uart_PutStr
 346               	.LM58:
 347 0158 8091 0000 		lds r24,i2
 348 015c E091 0000 		lds r30,start2
 349 0160 F091 0000 		lds r31,(start2)+1
 350 0164 E80F      		add r30,r24
 351 0166 F11D      		adc r31,__zero_reg__
 352 0168 8081      		ld r24,Z
 353 016a 0E94 0000 		call f_debug_port
 354               	.LM59:
 355 016e 2091 0000 		lds r18,i2
 356 0172 8091 0000 		lds r24,start2
 357 0176 9091 0000 		lds r25,(start2)+1
 358 017a 820F      		add r24,r18
 359 017c 911D      		adc r25,__zero_reg__
 360 017e 2091 0000 		lds r18,end2
 361 0182 3091 0000 		lds r19,(end2)+1
 362 0186 8217      		cp r24,r18
 363 0188 9307      		cpc r25,r19
 364 018a 01F0      		breq .L39
 365 018c 0895      		ret
 366               	.L39:
 367               	.LM60:
 368 018e 1092 0000 		sts i2,__zero_reg__
 369               	.LM61:
 370 0192 80E0      		ldi r24,lo8(.LC4)
 371 0194 90E0      		ldi r25,hi8(.LC4)
 372 0196 0E94 0000 		call f_Uart_PutStr
 373 019a 0895      		ret
 374               	.LFE5:
 375               		.size	my_Applic2, .-my_Applic2
 376               	.global	my_Applic
 377               		.type	my_Applic, @function
 378               	my_Applic:
 379               	.LFB4:
 380               	.LM62:
 381               	/* prologue: function */
 382               	/* frame size = 0 */
 383               	.LM63:
 384 019c 8091 0000 		lds r24,c
 385 01a0 8F5F      		subi r24,lo8(-(1))
 386 01a2 8093 0000 		sts c,r24
 387               	.LM64:
 388 01a6 84E6      		ldi r24,lo8(100)
 389 01a8 0E94 0000 		call f_Delay_ms
 390               	.LM65:
GAS LISTING C:\users\mohammadreza\Temp/ccazr1lT.s 			page 8


 391 01ac 8091 0000 		lds r24,c
 392 01b0 8BBB      		out 59-32,r24
 393               	/* epilogue start */
 394               	.LM66:
 395 01b2 0895      		ret
 396               	.LFE4:
 397               		.size	my_Applic, .-my_Applic
 398               	.global	f_Applic_function
 399               		.data
 400               		.type	f_Applic_function, @object
 401               		.size	f_Applic_function, 16
 402               	f_Applic_function:
 403 0034 0000      		.word	gs(f_Applic)
 404 0036 0000      		.word	gs(my_Applic)
 405 0038 0000      		.word	gs(my_Applic2)
 406 003a 0000      		.word	gs(my_Applic3)
 407 003c 0000      		.word	gs(my_Applic4)
 408 003e 0000      		.word	gs(my_Applic5)
 409 0040 0000      		.word	gs(my_Applic6)
 410 0042 0000      		.word	gs(my_Applic7)
 411               	.global	c
 412               	.global	c
 413               		.section .bss
 414               		.type	c, @object
 415               		.size	c, 1
 416               	c:
 417 0000 00        		.skip 1,0
 418               	.global	start2
 419               		.data
 420               		.type	start2, @object
 421               		.size	start2, 2
 422               	start2:
 423 0044 7101      		.word	369
 424               	.global	end2
 425               		.type	end2, @object
 426               		.size	end2, 2
 427               	end2:
 428 0046 7901      		.word	377
 429               	.global	i2
 430               	.global	i2
 431               		.section .bss
 432               		.type	i2, @object
 433               		.size	i2, 1
 434               	i2:
 435 0001 00        		.skip 1,0
 436               		.comm state_Lock,2,1
 437               		.comm v_ServoLock,1,1
 438               		.comm v_ServoUnLock,1,1
 439               		.comm app_subscription,1,1
 440               		.section	.debug_frame,"",@progbits
 441               	.Lframe0:
 442 0000 0C00 0000 		.long	.LECIE0-.LSCIE0
 443               	.LSCIE0:
 444 0004 FFFF FFFF 		.long	0xffffffff
 445 0008 01        		.byte	0x1
 446 0009 00        		.string	""
 447 000a 01        		.uleb128 0x1
GAS LISTING C:\users\mohammadreza\Temp/ccazr1lT.s 			page 9


 448 000b 7F        		.sleb128 -1
 449 000c 24        		.byte	0x24
 450 000d 0C        		.byte	0xc
 451 000e 20        		.uleb128 0x20
 452 000f 00        		.uleb128 0x0
 453               		.p2align	2
 454               	.LECIE0:
 455               	.LSFDE0:
 456 0010 0C00 0000 		.long	.LEFDE0-.LASFDE0
 457               	.LASFDE0:
 458 0014 0000 0000 		.long	.Lframe0
 459 0018 0000 0000 		.long	.LFB2
 460 001c 2C00 0000 		.long	.LFE2-.LFB2
 461               		.p2align	2
 462               	.LEFDE0:
 463               	.LSFDE2:
 464 0020 0C00 0000 		.long	.LEFDE2-.LASFDE2
 465               	.LASFDE2:
 466 0024 0000 0000 		.long	.Lframe0
 467 0028 0000 0000 		.long	.LFB6
 468 002c 0200 0000 		.long	.LFE6-.LFB6
 469               		.p2align	2
 470               	.LEFDE2:
 471               	.LSFDE4:
 472 0030 0C00 0000 		.long	.LEFDE4-.LASFDE4
 473               	.LASFDE4:
 474 0034 0000 0000 		.long	.Lframe0
 475 0038 0000 0000 		.long	.LFB7
 476 003c 0200 0000 		.long	.LFE7-.LFB7
 477               		.p2align	2
 478               	.LEFDE4:
 479               	.LSFDE6:
 480 0040 0C00 0000 		.long	.LEFDE6-.LASFDE6
 481               	.LASFDE6:
 482 0044 0000 0000 		.long	.Lframe0
 483 0048 0000 0000 		.long	.LFB8
 484 004c 0200 0000 		.long	.LFE8-.LFB8
 485               		.p2align	2
 486               	.LEFDE6:
 487               	.LSFDE8:
 488 0050 0C00 0000 		.long	.LEFDE8-.LASFDE8
 489               	.LASFDE8:
 490 0054 0000 0000 		.long	.Lframe0
 491 0058 0000 0000 		.long	.LFB9
 492 005c 0200 0000 		.long	.LFE9-.LFB9
 493               		.p2align	2
 494               	.LEFDE8:
 495               	.LSFDE10:
 496 0060 0C00 0000 		.long	.LEFDE10-.LASFDE10
 497               	.LASFDE10:
 498 0064 0000 0000 		.long	.Lframe0
 499 0068 0000 0000 		.long	.LFB10
 500 006c 0200 0000 		.long	.LFE10-.LFB10
 501               		.p2align	2
 502               	.LEFDE10:
 503               	.LSFDE12:
 504 0070 0C00 0000 		.long	.LEFDE12-.LASFDE12
GAS LISTING C:\users\mohammadreza\Temp/ccazr1lT.s 			page 10


 505               	.LASFDE12:
 506 0074 0000 0000 		.long	.Lframe0
 507 0078 0000 0000 		.long	.LFB14
 508 007c 1A00 0000 		.long	.LFE14-.LFB14
 509               		.p2align	2
 510               	.LEFDE12:
 511               	.LSFDE14:
 512 0080 0C00 0000 		.long	.LEFDE14-.LASFDE14
 513               	.LASFDE14:
 514 0084 0000 0000 		.long	.Lframe0
 515 0088 0000 0000 		.long	.LFB13
 516 008c 0A00 0000 		.long	.LFE13-.LFB13
 517               		.p2align	2
 518               	.LEFDE14:
 519               	.LSFDE16:
 520 0090 0C00 0000 		.long	.LEFDE16-.LASFDE16
 521               	.LASFDE16:
 522 0094 0000 0000 		.long	.Lframe0
 523 0098 0000 0000 		.long	.LFB12
 524 009c 1A00 0000 		.long	.LFE12-.LFB12
 525               		.p2align	2
 526               	.LEFDE16:
 527               	.LSFDE18:
 528 00a0 0C00 0000 		.long	.LEFDE18-.LASFDE18
 529               	.LASFDE18:
 530 00a4 0000 0000 		.long	.Lframe0
 531 00a8 0000 0000 		.long	.LFB15
 532 00ac B400 0000 		.long	.LFE15-.LFB15
 533               		.p2align	2
 534               	.LEFDE18:
 535               	.LSFDE20:
 536 00b0 0C00 0000 		.long	.LEFDE20-.LASFDE20
 537               	.LASFDE20:
 538 00b4 0000 0000 		.long	.Lframe0
 539 00b8 0000 0000 		.long	.LFB3
 540 00bc 0600 0000 		.long	.LFE3-.LFB3
 541               		.p2align	2
 542               	.LEFDE20:
 543               	.LSFDE22:
 544 00c0 0C00 0000 		.long	.LEFDE22-.LASFDE22
 545               	.LASFDE22:
 546 00c4 0000 0000 		.long	.Lframe0
 547 00c8 0000 0000 		.long	.LFB11
 548 00cc 2200 0000 		.long	.LFE11-.LFB11
 549               		.p2align	2
 550               	.LEFDE22:
 551               	.LSFDE24:
 552 00d0 0C00 0000 		.long	.LEFDE24-.LASFDE24
 553               	.LASFDE24:
 554 00d4 0000 0000 		.long	.Lframe0
 555 00d8 0000 0000 		.long	.LFB5
 556 00dc 4C00 0000 		.long	.LFE5-.LFB5
 557               		.p2align	2
 558               	.LEFDE24:
 559               	.LSFDE26:
 560 00e0 0C00 0000 		.long	.LEFDE26-.LASFDE26
 561               	.LASFDE26:
GAS LISTING C:\users\mohammadreza\Temp/ccazr1lT.s 			page 11


 562 00e4 0000 0000 		.long	.Lframe0
 563 00e8 0000 0000 		.long	.LFB4
 564 00ec 1800 0000 		.long	.LFE4-.LFB4
 565               		.p2align	2
 566               	.LEFDE26:
 567               		.text
 568               	.Letext0:
 569               		.section	.debug_loc,"",@progbits
 570               	.Ldebug_loc0:
 571               	.LLST1:
 572 0000 0000 0000 		.long	.LVL0-.Ltext0
 573 0004 0800 0000 		.long	.LVL1-.Ltext0
 574 0008 0100      		.word	0x1
 575 000a 68        		.byte	0x68
 576 000b 0000 0000 		.long	0x0
 577 000f 0000 0000 		.long	0x0
 578               		.section	.debug_info
 579 0000 0203 0000 		.long	0x302
 580 0004 0200      		.word	0x2
 581 0006 0000 0000 		.long	.Ldebug_abbrev0
 582 000a 04        		.byte	0x4
 583 000b 01        		.uleb128 0x1
 584 000c 0000 0000 		.long	.LASF40
 585 0010 01        		.byte	0x1
 586 0011 0000 0000 		.long	.LASF41
 587 0015 0000 0000 		.long	.LASF42
 588 0019 0000 0000 		.long	.Ltext0
 589 001d 0000 0000 		.long	.Letext0
 590 0021 0000 0000 		.long	.Ldebug_line0
 591 0025 02        		.uleb128 0x2
 592 0026 01        		.byte	0x1
 593 0027 06        		.byte	0x6
 594 0028 0000 0000 		.long	.LASF0
 595 002c 02        		.uleb128 0x2
 596 002d 01        		.byte	0x1
 597 002e 08        		.byte	0x8
 598 002f 0000 0000 		.long	.LASF1
 599 0033 03        		.uleb128 0x3
 600 0034 02        		.byte	0x2
 601 0035 05        		.byte	0x5
 602 0036 696E 7400 		.string	"int"
 603 003a 02        		.uleb128 0x2
 604 003b 02        		.byte	0x2
 605 003c 07        		.byte	0x7
 606 003d 0000 0000 		.long	.LASF2
 607 0041 02        		.uleb128 0x2
 608 0042 04        		.byte	0x4
 609 0043 05        		.byte	0x5
 610 0044 0000 0000 		.long	.LASF3
 611 0048 02        		.uleb128 0x2
 612 0049 04        		.byte	0x4
 613 004a 07        		.byte	0x7
 614 004b 0000 0000 		.long	.LASF4
 615 004f 02        		.uleb128 0x2
 616 0050 08        		.byte	0x8
 617 0051 05        		.byte	0x5
 618 0052 0000 0000 		.long	.LASF5
GAS LISTING C:\users\mohammadreza\Temp/ccazr1lT.s 			page 12


 619 0056 02        		.uleb128 0x2
 620 0057 08        		.byte	0x8
 621 0058 07        		.byte	0x7
 622 0059 0000 0000 		.long	.LASF6
 623 005d 02        		.uleb128 0x2
 624 005e 01        		.byte	0x1
 625 005f 06        		.byte	0x6
 626 0060 0000 0000 		.long	.LASF7
 627 0064 02        		.uleb128 0x2
 628 0065 02        		.byte	0x2
 629 0066 07        		.byte	0x7
 630 0067 0000 0000 		.long	.LASF8
 631 006b 02        		.uleb128 0x2
 632 006c 02        		.byte	0x2
 633 006d 05        		.byte	0x5
 634 006e 0000 0000 		.long	.LASF9
 635 0072 04        		.uleb128 0x4
 636 0073 0000 0000 		.long	.LASF10
 637 0077 02        		.byte	0x2
 638 0078 0D        		.byte	0xd
 639 0079 2C00 0000 		.long	0x2c
 640 007d 04        		.uleb128 0x4
 641 007e 0000 0000 		.long	.LASF11
 642 0082 02        		.byte	0x2
 643 0083 0F        		.byte	0xf
 644 0084 6400 0000 		.long	0x64
 645 0088 05        		.uleb128 0x5
 646 0089 02        		.byte	0x2
 647 008a 01        		.byte	0x1
 648 008b 29        		.byte	0x29
 649 008c A900 0000 		.long	0xa9
 650 0090 06        		.uleb128 0x6
 651 0091 0000 0000 		.long	.LASF12
 652 0095 00        		.sleb128 0
 653 0096 06        		.uleb128 0x6
 654 0097 0000 0000 		.long	.LASF13
 655 009b 01        		.sleb128 1
 656 009c 06        		.uleb128 0x6
 657 009d 0000 0000 		.long	.LASF14
 658 00a1 02        		.sleb128 2
 659 00a2 06        		.uleb128 0x6
 660 00a3 0000 0000 		.long	.LASF15
 661 00a7 03        		.sleb128 3
 662 00a8 00        		.byte	0x0
 663 00a9 04        		.uleb128 0x4
 664 00aa 0000 0000 		.long	.LASF16
 665 00ae 01        		.byte	0x1
 666 00af 2B        		.byte	0x2b
 667 00b0 8800 0000 		.long	0x88
 668 00b4 07        		.uleb128 0x7
 669 00b5 01        		.byte	0x1
 670 00b6 0000 0000 		.long	.LASF43
 671 00ba 01        		.byte	0x1
 672 00bb A8        		.byte	0xa8
 673 00bc 01        		.byte	0x1
 674 00bd 00        		.byte	0x0
 675 00be 08        		.uleb128 0x8
GAS LISTING C:\users\mohammadreza\Temp/ccazr1lT.s 			page 13


 676 00bf 01        		.byte	0x1
 677 00c0 0000 0000 		.long	.LASF24
 678 00c4 01        		.byte	0x1
 679 00c5 58        		.byte	0x58
 680 00c6 01        		.byte	0x1
 681 00c7 0000 0000 		.long	.LFB2
 682 00cb 0000 0000 		.long	.LFE2
 683 00cf 02        		.byte	0x2
 684 00d0 90        		.byte	0x90
 685 00d1 20        		.uleb128 0x20
 686 00d2 E600 0000 		.long	0xe6
 687 00d6 09        		.uleb128 0x9
 688 00d7 6E75 6D00 		.string	"num"
 689 00db 01        		.byte	0x1
 690 00dc 58        		.byte	0x58
 691 00dd 7200 0000 		.long	0x72
 692 00e1 0000 0000 		.long	.LLST1
 693 00e5 00        		.byte	0x0
 694 00e6 0A        		.uleb128 0xa
 695 00e7 01        		.byte	0x1
 696 00e8 0000 0000 		.long	.LASF17
 697 00ec 01        		.byte	0x1
 698 00ed 77        		.byte	0x77
 699 00ee 01        		.byte	0x1
 700 00ef 0000 0000 		.long	.LFB6
 701 00f3 0000 0000 		.long	.LFE6
 702 00f7 02        		.byte	0x2
 703 00f8 90        		.byte	0x90
 704 00f9 20        		.uleb128 0x20
 705 00fa 0A        		.uleb128 0xa
 706 00fb 01        		.byte	0x1
 707 00fc 0000 0000 		.long	.LASF18
 708 0100 01        		.byte	0x1
 709 0101 7B        		.byte	0x7b
 710 0102 01        		.byte	0x1
 711 0103 0000 0000 		.long	.LFB7
 712 0107 0000 0000 		.long	.LFE7
 713 010b 02        		.byte	0x2
 714 010c 90        		.byte	0x90
 715 010d 20        		.uleb128 0x20
 716 010e 0A        		.uleb128 0xa
 717 010f 01        		.byte	0x1
 718 0110 0000 0000 		.long	.LASF19
 719 0114 01        		.byte	0x1
 720 0115 7F        		.byte	0x7f
 721 0116 01        		.byte	0x1
 722 0117 0000 0000 		.long	.LFB8
 723 011b 0000 0000 		.long	.LFE8
 724 011f 02        		.byte	0x2
 725 0120 90        		.byte	0x90
 726 0121 20        		.uleb128 0x20
 727 0122 0A        		.uleb128 0xa
 728 0123 01        		.byte	0x1
 729 0124 0000 0000 		.long	.LASF20
 730 0128 01        		.byte	0x1
 731 0129 83        		.byte	0x83
 732 012a 01        		.byte	0x1
GAS LISTING C:\users\mohammadreza\Temp/ccazr1lT.s 			page 14


 733 012b 0000 0000 		.long	.LFB9
 734 012f 0000 0000 		.long	.LFE9
 735 0133 02        		.byte	0x2
 736 0134 90        		.byte	0x90
 737 0135 20        		.uleb128 0x20
 738 0136 0A        		.uleb128 0xa
 739 0137 01        		.byte	0x1
 740 0138 0000 0000 		.long	.LASF21
 741 013c 01        		.byte	0x1
 742 013d 87        		.byte	0x87
 743 013e 01        		.byte	0x1
 744 013f 0000 0000 		.long	.LFB10
 745 0143 0000 0000 		.long	.LFE10
 746 0147 02        		.byte	0x2
 747 0148 90        		.byte	0x90
 748 0149 20        		.uleb128 0x20
 749 014a 0A        		.uleb128 0xa
 750 014b 01        		.byte	0x1
 751 014c 0000 0000 		.long	.LASF22
 752 0150 01        		.byte	0x1
 753 0151 B2        		.byte	0xb2
 754 0152 01        		.byte	0x1
 755 0153 0000 0000 		.long	.LFB14
 756 0157 0000 0000 		.long	.LFE14
 757 015b 02        		.byte	0x2
 758 015c 90        		.byte	0x90
 759 015d 20        		.uleb128 0x20
 760 015e 0B        		.uleb128 0xb
 761 015f B400 0000 		.long	0xb4
 762 0163 0000 0000 		.long	.LFB13
 763 0167 0000 0000 		.long	.LFE13
 764 016b 02        		.byte	0x2
 765 016c 90        		.byte	0x90
 766 016d 20        		.uleb128 0x20
 767 016e 0A        		.uleb128 0xa
 768 016f 01        		.byte	0x1
 769 0170 0000 0000 		.long	.LASF23
 770 0174 01        		.byte	0x1
 771 0175 A1        		.byte	0xa1
 772 0176 01        		.byte	0x1
 773 0177 0000 0000 		.long	.LFB12
 774 017b 0000 0000 		.long	.LFE12
 775 017f 02        		.byte	0x2
 776 0180 90        		.byte	0x90
 777 0181 20        		.uleb128 0x20
 778 0182 08        		.uleb128 0x8
 779 0183 01        		.byte	0x1
 780 0184 0000 0000 		.long	.LASF25
 781 0188 01        		.byte	0x1
 782 0189 BA        		.byte	0xba
 783 018a 01        		.byte	0x1
 784 018b 0000 0000 		.long	.LFB15
 785 018f 0000 0000 		.long	.LFE15
 786 0193 02        		.byte	0x2
 787 0194 90        		.byte	0x90
 788 0195 20        		.uleb128 0x20
 789 0196 C401 0000 		.long	0x1c4
GAS LISTING C:\users\mohammadreza\Temp/ccazr1lT.s 			page 15


 790 019a 0C        		.uleb128 0xc
 791 019b 0000 0000 		.long	.LASF29
 792 019f 01        		.byte	0x1
 793 01a0 BB        		.byte	0xbb
 794 01a1 7200 0000 		.long	0x72
 795 01a5 0D        		.uleb128 0xd
 796 01a6 B400 0000 		.long	0xb4
 797 01aa 0000 0000 		.long	.LBB6
 798 01ae 0000 0000 		.long	.LBE6
 799 01b2 01        		.byte	0x1
 800 01b3 E4        		.byte	0xe4
 801 01b4 0D        		.uleb128 0xd
 802 01b5 B400 0000 		.long	0xb4
 803 01b9 0000 0000 		.long	.LBB8
 804 01bd 0000 0000 		.long	.LBE8
 805 01c1 01        		.byte	0x1
 806 01c2 CF        		.byte	0xcf
 807 01c3 00        		.byte	0x0
 808 01c4 0A        		.uleb128 0xa
 809 01c5 01        		.byte	0x1
 810 01c6 0000 0000 		.long	.LASF26
 811 01ca 01        		.byte	0x1
 812 01cb 5E        		.byte	0x5e
 813 01cc 01        		.byte	0x1
 814 01cd 0000 0000 		.long	.LFB3
 815 01d1 0000 0000 		.long	.LFE3
 816 01d5 02        		.byte	0x2
 817 01d6 90        		.byte	0x90
 818 01d7 20        		.uleb128 0x20
 819 01d8 0A        		.uleb128 0xa
 820 01d9 01        		.byte	0x1
 821 01da 0000 0000 		.long	.LASF27
 822 01de 01        		.byte	0x1
 823 01df 8C        		.byte	0x8c
 824 01e0 01        		.byte	0x1
 825 01e1 0000 0000 		.long	.LFB11
 826 01e5 0000 0000 		.long	.LFE11
 827 01e9 02        		.byte	0x2
 828 01ea 90        		.byte	0x90
 829 01eb 20        		.uleb128 0x20
 830 01ec 08        		.uleb128 0x8
 831 01ed 01        		.byte	0x1
 832 01ee 0000 0000 		.long	.LASF28
 833 01f2 01        		.byte	0x1
 834 01f3 6C        		.byte	0x6c
 835 01f4 01        		.byte	0x1
 836 01f5 0000 0000 		.long	.LFB5
 837 01f9 0000 0000 		.long	.LFE5
 838 01fd 02        		.byte	0x2
 839 01fe 90        		.byte	0x90
 840 01ff 20        		.uleb128 0x20
 841 0200 1002 0000 		.long	0x210
 842 0204 0C        		.uleb128 0xc
 843 0205 0000 0000 		.long	.LASF30
 844 0209 01        		.byte	0x1
 845 020a 6E        		.byte	0x6e
 846 020b 7200 0000 		.long	0x72
GAS LISTING C:\users\mohammadreza\Temp/ccazr1lT.s 			page 16


 847 020f 00        		.byte	0x0
 848 0210 0A        		.uleb128 0xa
 849 0211 01        		.byte	0x1
 850 0212 0000 0000 		.long	.LASF31
 851 0216 01        		.byte	0x1
 852 0217 64        		.byte	0x64
 853 0218 01        		.byte	0x1
 854 0219 0000 0000 		.long	.LFB4
 855 021d 0000 0000 		.long	.LFE4
 856 0221 02        		.byte	0x2
 857 0222 90        		.byte	0x90
 858 0223 20        		.uleb128 0x20
 859 0224 0E        		.uleb128 0xe
 860 0225 7D00 0000 		.long	0x7d
 861 0229 3402 0000 		.long	0x234
 862 022d 0F        		.uleb128 0xf
 863 022e 3402 0000 		.long	0x234
 864 0232 03        		.byte	0x3
 865 0233 00        		.byte	0x0
 866 0234 10        		.uleb128 0x10
 867 0235 02        		.byte	0x2
 868 0236 07        		.byte	0x7
 869 0237 11        		.uleb128 0x11
 870 0238 0000 0000 		.long	.LASF32
 871 023c 03        		.byte	0x3
 872 023d 0C        		.byte	0xc
 873 023e 2402 0000 		.long	0x224
 874 0242 01        		.byte	0x1
 875 0243 01        		.byte	0x1
 876 0244 12        		.uleb128 0x12
 877 0245 0000 0000 		.long	.LASF33
 878 0249 01        		.byte	0x1
 879 024a 2E        		.byte	0x2e
 880 024b 5602 0000 		.long	0x256
 881 024f 01        		.byte	0x1
 882 0250 05        		.byte	0x5
 883 0251 03        		.byte	0x3
 884 0252 0000 0000 		.long	state_Lock
 885 0256 13        		.uleb128 0x13
 886 0257 A900 0000 		.long	0xa9
 887 025b 12        		.uleb128 0x12
 888 025c 0000 0000 		.long	.LASF34
 889 0260 01        		.byte	0x1
 890 0261 4D        		.byte	0x4d
 891 0262 6D02 0000 		.long	0x26d
 892 0266 01        		.byte	0x1
 893 0267 05        		.byte	0x5
 894 0268 03        		.byte	0x3
 895 0269 0000 0000 		.long	v_ServoLock
 896 026d 13        		.uleb128 0x13
 897 026e 7200 0000 		.long	0x72
 898 0272 12        		.uleb128 0x12
 899 0273 0000 0000 		.long	.LASF35
 900 0277 01        		.byte	0x1
 901 0278 4E        		.byte	0x4e
 902 0279 6D02 0000 		.long	0x26d
 903 027d 01        		.byte	0x1
GAS LISTING C:\users\mohammadreza\Temp/ccazr1lT.s 			page 17


 904 027e 05        		.byte	0x5
 905 027f 03        		.byte	0x3
 906 0280 0000 0000 		.long	v_ServoUnLock
 907 0284 12        		.uleb128 0x12
 908 0285 0000 0000 		.long	.LASF36
 909 0289 01        		.byte	0x1
 910 028a 4F        		.byte	0x4f
 911 028b 7200 0000 		.long	0x72
 912 028f 01        		.byte	0x1
 913 0290 05        		.byte	0x5
 914 0291 03        		.byte	0x3
 915 0292 0000 0000 		.long	app_subscription
 916 0296 0E        		.uleb128 0xe
 917 0297 A802 0000 		.long	0x2a8
 918 029b A602 0000 		.long	0x2a6
 919 029f 0F        		.uleb128 0xf
 920 02a0 3402 0000 		.long	0x234
 921 02a4 07        		.byte	0x7
 922 02a5 00        		.byte	0x0
 923 02a6 14        		.uleb128 0x14
 924 02a7 01        		.byte	0x1
 925 02a8 15        		.uleb128 0x15
 926 02a9 02        		.byte	0x2
 927 02aa A602 0000 		.long	0x2a6
 928 02ae 12        		.uleb128 0x12
 929 02af 0000 0000 		.long	.LASF37
 930 02b3 01        		.byte	0x1
 931 02b4 54        		.byte	0x54
 932 02b5 9602 0000 		.long	0x296
 933 02b9 01        		.byte	0x1
 934 02ba 05        		.byte	0x5
 935 02bb 03        		.byte	0x3
 936 02bc 0000 0000 		.long	f_Applic_function
 937 02c0 16        		.uleb128 0x16
 938 02c1 6300      		.string	"c"
 939 02c3 01        		.byte	0x1
 940 02c4 63        		.byte	0x63
 941 02c5 7200 0000 		.long	0x72
 942 02c9 01        		.byte	0x1
 943 02ca 05        		.byte	0x5
 944 02cb 03        		.byte	0x3
 945 02cc 0000 0000 		.long	c
 946 02d0 12        		.uleb128 0x12
 947 02d1 0000 0000 		.long	.LASF38
 948 02d5 01        		.byte	0x1
 949 02d6 69        		.byte	0x69
 950 02d7 7D00 0000 		.long	0x7d
 951 02db 01        		.byte	0x1
 952 02dc 05        		.byte	0x5
 953 02dd 03        		.byte	0x3
 954 02de 0000 0000 		.long	start2
 955 02e2 12        		.uleb128 0x12
 956 02e3 0000 0000 		.long	.LASF39
 957 02e7 01        		.byte	0x1
 958 02e8 6A        		.byte	0x6a
 959 02e9 7D00 0000 		.long	0x7d
 960 02ed 01        		.byte	0x1
GAS LISTING C:\users\mohammadreza\Temp/ccazr1lT.s 			page 18


 961 02ee 05        		.byte	0x5
 962 02ef 03        		.byte	0x3
 963 02f0 0000 0000 		.long	end2
 964 02f4 16        		.uleb128 0x16
 965 02f5 6932 00   		.string	"i2"
 966 02f8 01        		.byte	0x1
 967 02f9 6B        		.byte	0x6b
 968 02fa 7200 0000 		.long	0x72
 969 02fe 01        		.byte	0x1
 970 02ff 05        		.byte	0x5
 971 0300 03        		.byte	0x3
 972 0301 0000 0000 		.long	i2
 973 0305 00        		.byte	0x0
 974               		.section	.debug_abbrev
 975 0000 01        		.uleb128 0x1
 976 0001 11        		.uleb128 0x11
 977 0002 01        		.byte	0x1
 978 0003 25        		.uleb128 0x25
 979 0004 0E        		.uleb128 0xe
 980 0005 13        		.uleb128 0x13
 981 0006 0B        		.uleb128 0xb
 982 0007 03        		.uleb128 0x3
 983 0008 0E        		.uleb128 0xe
 984 0009 1B        		.uleb128 0x1b
 985 000a 0E        		.uleb128 0xe
 986 000b 11        		.uleb128 0x11
 987 000c 01        		.uleb128 0x1
 988 000d 12        		.uleb128 0x12
 989 000e 01        		.uleb128 0x1
 990 000f 10        		.uleb128 0x10
 991 0010 06        		.uleb128 0x6
 992 0011 00        		.byte	0x0
 993 0012 00        		.byte	0x0
 994 0013 02        		.uleb128 0x2
 995 0014 24        		.uleb128 0x24
 996 0015 00        		.byte	0x0
 997 0016 0B        		.uleb128 0xb
 998 0017 0B        		.uleb128 0xb
 999 0018 3E        		.uleb128 0x3e
 1000 0019 0B        		.uleb128 0xb
 1001 001a 03        		.uleb128 0x3
 1002 001b 0E        		.uleb128 0xe
 1003 001c 00        		.byte	0x0
 1004 001d 00        		.byte	0x0
 1005 001e 03        		.uleb128 0x3
 1006 001f 24        		.uleb128 0x24
 1007 0020 00        		.byte	0x0
 1008 0021 0B        		.uleb128 0xb
 1009 0022 0B        		.uleb128 0xb
 1010 0023 3E        		.uleb128 0x3e
 1011 0024 0B        		.uleb128 0xb
 1012 0025 03        		.uleb128 0x3
 1013 0026 08        		.uleb128 0x8
 1014 0027 00        		.byte	0x0
 1015 0028 00        		.byte	0x0
 1016 0029 04        		.uleb128 0x4
 1017 002a 16        		.uleb128 0x16
GAS LISTING C:\users\mohammadreza\Temp/ccazr1lT.s 			page 19


 1018 002b 00        		.byte	0x0
 1019 002c 03        		.uleb128 0x3
 1020 002d 0E        		.uleb128 0xe
 1021 002e 3A        		.uleb128 0x3a
 1022 002f 0B        		.uleb128 0xb
 1023 0030 3B        		.uleb128 0x3b
 1024 0031 0B        		.uleb128 0xb
 1025 0032 49        		.uleb128 0x49
 1026 0033 13        		.uleb128 0x13
 1027 0034 00        		.byte	0x0
 1028 0035 00        		.byte	0x0
 1029 0036 05        		.uleb128 0x5
 1030 0037 04        		.uleb128 0x4
 1031 0038 01        		.byte	0x1
 1032 0039 0B        		.uleb128 0xb
 1033 003a 0B        		.uleb128 0xb
 1034 003b 3A        		.uleb128 0x3a
 1035 003c 0B        		.uleb128 0xb
 1036 003d 3B        		.uleb128 0x3b
 1037 003e 0B        		.uleb128 0xb
 1038 003f 01        		.uleb128 0x1
 1039 0040 13        		.uleb128 0x13
 1040 0041 00        		.byte	0x0
 1041 0042 00        		.byte	0x0
 1042 0043 06        		.uleb128 0x6
 1043 0044 28        		.uleb128 0x28
 1044 0045 00        		.byte	0x0
 1045 0046 03        		.uleb128 0x3
 1046 0047 0E        		.uleb128 0xe
 1047 0048 1C        		.uleb128 0x1c
 1048 0049 0D        		.uleb128 0xd
 1049 004a 00        		.byte	0x0
 1050 004b 00        		.byte	0x0
 1051 004c 07        		.uleb128 0x7
 1052 004d 2E        		.uleb128 0x2e
 1053 004e 00        		.byte	0x0
 1054 004f 3F        		.uleb128 0x3f
 1055 0050 0C        		.uleb128 0xc
 1056 0051 03        		.uleb128 0x3
 1057 0052 0E        		.uleb128 0xe
 1058 0053 3A        		.uleb128 0x3a
 1059 0054 0B        		.uleb128 0xb
 1060 0055 3B        		.uleb128 0x3b
 1061 0056 0B        		.uleb128 0xb
 1062 0057 27        		.uleb128 0x27
 1063 0058 0C        		.uleb128 0xc
 1064 0059 20        		.uleb128 0x20
 1065 005a 0B        		.uleb128 0xb
 1066 005b 00        		.byte	0x0
 1067 005c 00        		.byte	0x0
 1068 005d 08        		.uleb128 0x8
 1069 005e 2E        		.uleb128 0x2e
 1070 005f 01        		.byte	0x1
 1071 0060 3F        		.uleb128 0x3f
 1072 0061 0C        		.uleb128 0xc
 1073 0062 03        		.uleb128 0x3
 1074 0063 0E        		.uleb128 0xe
GAS LISTING C:\users\mohammadreza\Temp/ccazr1lT.s 			page 20


 1075 0064 3A        		.uleb128 0x3a
 1076 0065 0B        		.uleb128 0xb
 1077 0066 3B        		.uleb128 0x3b
 1078 0067 0B        		.uleb128 0xb
 1079 0068 27        		.uleb128 0x27
 1080 0069 0C        		.uleb128 0xc
 1081 006a 11        		.uleb128 0x11
 1082 006b 01        		.uleb128 0x1
 1083 006c 12        		.uleb128 0x12
 1084 006d 01        		.uleb128 0x1
 1085 006e 40        		.uleb128 0x40
 1086 006f 0A        		.uleb128 0xa
 1087 0070 01        		.uleb128 0x1
 1088 0071 13        		.uleb128 0x13
 1089 0072 00        		.byte	0x0
 1090 0073 00        		.byte	0x0
 1091 0074 09        		.uleb128 0x9
 1092 0075 05        		.uleb128 0x5
 1093 0076 00        		.byte	0x0
 1094 0077 03        		.uleb128 0x3
 1095 0078 08        		.uleb128 0x8
 1096 0079 3A        		.uleb128 0x3a
 1097 007a 0B        		.uleb128 0xb
 1098 007b 3B        		.uleb128 0x3b
 1099 007c 0B        		.uleb128 0xb
 1100 007d 49        		.uleb128 0x49
 1101 007e 13        		.uleb128 0x13
 1102 007f 02        		.uleb128 0x2
 1103 0080 06        		.uleb128 0x6
 1104 0081 00        		.byte	0x0
 1105 0082 00        		.byte	0x0
 1106 0083 0A        		.uleb128 0xa
 1107 0084 2E        		.uleb128 0x2e
 1108 0085 00        		.byte	0x0
 1109 0086 3F        		.uleb128 0x3f
 1110 0087 0C        		.uleb128 0xc
 1111 0088 03        		.uleb128 0x3
 1112 0089 0E        		.uleb128 0xe
 1113 008a 3A        		.uleb128 0x3a
 1114 008b 0B        		.uleb128 0xb
 1115 008c 3B        		.uleb128 0x3b
 1116 008d 0B        		.uleb128 0xb
 1117 008e 27        		.uleb128 0x27
 1118 008f 0C        		.uleb128 0xc
 1119 0090 11        		.uleb128 0x11
 1120 0091 01        		.uleb128 0x1
 1121 0092 12        		.uleb128 0x12
 1122 0093 01        		.uleb128 0x1
 1123 0094 40        		.uleb128 0x40
 1124 0095 0A        		.uleb128 0xa
 1125 0096 00        		.byte	0x0
 1126 0097 00        		.byte	0x0
 1127 0098 0B        		.uleb128 0xb
 1128 0099 2E        		.uleb128 0x2e
 1129 009a 00        		.byte	0x0
 1130 009b 31        		.uleb128 0x31
 1131 009c 13        		.uleb128 0x13
GAS LISTING C:\users\mohammadreza\Temp/ccazr1lT.s 			page 21


 1132 009d 11        		.uleb128 0x11
 1133 009e 01        		.uleb128 0x1
 1134 009f 12        		.uleb128 0x12
 1135 00a0 01        		.uleb128 0x1
 1136 00a1 40        		.uleb128 0x40
 1137 00a2 0A        		.uleb128 0xa
 1138 00a3 00        		.byte	0x0
 1139 00a4 00        		.byte	0x0
 1140 00a5 0C        		.uleb128 0xc
 1141 00a6 34        		.uleb128 0x34
 1142 00a7 00        		.byte	0x0
 1143 00a8 03        		.uleb128 0x3
 1144 00a9 0E        		.uleb128 0xe
 1145 00aa 3A        		.uleb128 0x3a
 1146 00ab 0B        		.uleb128 0xb
 1147 00ac 3B        		.uleb128 0x3b
 1148 00ad 0B        		.uleb128 0xb
 1149 00ae 49        		.uleb128 0x49
 1150 00af 13        		.uleb128 0x13
 1151 00b0 00        		.byte	0x0
 1152 00b1 00        		.byte	0x0
 1153 00b2 0D        		.uleb128 0xd
 1154 00b3 1D        		.uleb128 0x1d
 1155 00b4 00        		.byte	0x0
 1156 00b5 31        		.uleb128 0x31
 1157 00b6 13        		.uleb128 0x13
 1158 00b7 11        		.uleb128 0x11
 1159 00b8 01        		.uleb128 0x1
 1160 00b9 12        		.uleb128 0x12
 1161 00ba 01        		.uleb128 0x1
 1162 00bb 58        		.uleb128 0x58
 1163 00bc 0B        		.uleb128 0xb
 1164 00bd 59        		.uleb128 0x59
 1165 00be 0B        		.uleb128 0xb
 1166 00bf 00        		.byte	0x0
 1167 00c0 00        		.byte	0x0
 1168 00c1 0E        		.uleb128 0xe
 1169 00c2 01        		.uleb128 0x1
 1170 00c3 01        		.byte	0x1
 1171 00c4 49        		.uleb128 0x49
 1172 00c5 13        		.uleb128 0x13
 1173 00c6 01        		.uleb128 0x1
 1174 00c7 13        		.uleb128 0x13
 1175 00c8 00        		.byte	0x0
 1176 00c9 00        		.byte	0x0
 1177 00ca 0F        		.uleb128 0xf
 1178 00cb 21        		.uleb128 0x21
 1179 00cc 00        		.byte	0x0
 1180 00cd 49        		.uleb128 0x49
 1181 00ce 13        		.uleb128 0x13
 1182 00cf 2F        		.uleb128 0x2f
 1183 00d0 0B        		.uleb128 0xb
 1184 00d1 00        		.byte	0x0
 1185 00d2 00        		.byte	0x0
 1186 00d3 10        		.uleb128 0x10
 1187 00d4 24        		.uleb128 0x24
 1188 00d5 00        		.byte	0x0
GAS LISTING C:\users\mohammadreza\Temp/ccazr1lT.s 			page 22


 1189 00d6 0B        		.uleb128 0xb
 1190 00d7 0B        		.uleb128 0xb
 1191 00d8 3E        		.uleb128 0x3e
 1192 00d9 0B        		.uleb128 0xb
 1193 00da 00        		.byte	0x0
 1194 00db 00        		.byte	0x0
 1195 00dc 11        		.uleb128 0x11
 1196 00dd 34        		.uleb128 0x34
 1197 00de 00        		.byte	0x0
 1198 00df 03        		.uleb128 0x3
 1199 00e0 0E        		.uleb128 0xe
 1200 00e1 3A        		.uleb128 0x3a
 1201 00e2 0B        		.uleb128 0xb
 1202 00e3 3B        		.uleb128 0x3b
 1203 00e4 0B        		.uleb128 0xb
 1204 00e5 49        		.uleb128 0x49
 1205 00e6 13        		.uleb128 0x13
 1206 00e7 3F        		.uleb128 0x3f
 1207 00e8 0C        		.uleb128 0xc
 1208 00e9 3C        		.uleb128 0x3c
 1209 00ea 0C        		.uleb128 0xc
 1210 00eb 00        		.byte	0x0
 1211 00ec 00        		.byte	0x0
 1212 00ed 12        		.uleb128 0x12
 1213 00ee 34        		.uleb128 0x34
 1214 00ef 00        		.byte	0x0
 1215 00f0 03        		.uleb128 0x3
 1216 00f1 0E        		.uleb128 0xe
 1217 00f2 3A        		.uleb128 0x3a
 1218 00f3 0B        		.uleb128 0xb
 1219 00f4 3B        		.uleb128 0x3b
 1220 00f5 0B        		.uleb128 0xb
 1221 00f6 49        		.uleb128 0x49
 1222 00f7 13        		.uleb128 0x13
 1223 00f8 3F        		.uleb128 0x3f
 1224 00f9 0C        		.uleb128 0xc
 1225 00fa 02        		.uleb128 0x2
 1226 00fb 0A        		.uleb128 0xa
 1227 00fc 00        		.byte	0x0
 1228 00fd 00        		.byte	0x0
 1229 00fe 13        		.uleb128 0x13
 1230 00ff 35        		.uleb128 0x35
 1231 0100 00        		.byte	0x0
 1232 0101 49        		.uleb128 0x49
 1233 0102 13        		.uleb128 0x13
 1234 0103 00        		.byte	0x0
 1235 0104 00        		.byte	0x0
 1236 0105 14        		.uleb128 0x14
 1237 0106 15        		.uleb128 0x15
 1238 0107 00        		.byte	0x0
 1239 0108 27        		.uleb128 0x27
 1240 0109 0C        		.uleb128 0xc
 1241 010a 00        		.byte	0x0
 1242 010b 00        		.byte	0x0
 1243 010c 15        		.uleb128 0x15
 1244 010d 0F        		.uleb128 0xf
 1245 010e 00        		.byte	0x0
GAS LISTING C:\users\mohammadreza\Temp/ccazr1lT.s 			page 23


 1246 010f 0B        		.uleb128 0xb
 1247 0110 0B        		.uleb128 0xb
 1248 0111 49        		.uleb128 0x49
 1249 0112 13        		.uleb128 0x13
 1250 0113 00        		.byte	0x0
 1251 0114 00        		.byte	0x0
 1252 0115 16        		.uleb128 0x16
 1253 0116 34        		.uleb128 0x34
 1254 0117 00        		.byte	0x0
 1255 0118 03        		.uleb128 0x3
 1256 0119 08        		.uleb128 0x8
 1257 011a 3A        		.uleb128 0x3a
 1258 011b 0B        		.uleb128 0xb
 1259 011c 3B        		.uleb128 0x3b
 1260 011d 0B        		.uleb128 0xb
 1261 011e 49        		.uleb128 0x49
 1262 011f 13        		.uleb128 0x13
 1263 0120 3F        		.uleb128 0x3f
 1264 0121 0C        		.uleb128 0xc
 1265 0122 02        		.uleb128 0x2
 1266 0123 0A        		.uleb128 0xa
 1267 0124 00        		.byte	0x0
 1268 0125 00        		.byte	0x0
 1269 0126 00        		.byte	0x0
 1270               		.section	.debug_pubnames,"",@progbits
 1271 0000 6801 0000 		.long	0x168
 1272 0004 0200      		.word	0x2
 1273 0006 0000 0000 		.long	.Ldebug_info0
 1274 000a 0603 0000 		.long	0x306
 1275 000e BE00 0000 		.long	0xbe
 1276 0012 6170 706C 		.string	"applications_reducer"
 1276      6963 6174 
 1276      696F 6E73 
 1276      5F72 6564 
 1276      7563 6572 
 1277 0027 E600 0000 		.long	0xe6
 1278 002b 6D79 5F41 		.string	"my_Applic3"
 1278      7070 6C69 
 1278      6333 00
 1279 0036 FA00 0000 		.long	0xfa
 1280 003a 6D79 5F41 		.string	"my_Applic4"
 1280      7070 6C69 
 1280      6334 00
 1281 0045 0E01 0000 		.long	0x10e
 1282 0049 6D79 5F41 		.string	"my_Applic5"
 1282      7070 6C69 
 1282      6335 00
 1283 0054 2201 0000 		.long	0x122
 1284 0058 6D79 5F41 		.string	"my_Applic6"
 1284      7070 6C69 
 1284      6336 00
 1285 0063 3601 0000 		.long	0x136
 1286 0067 6D79 5F41 		.string	"my_Applic7"
 1286      7070 6C69 
 1286      6337 00
 1287 0072 4A01 0000 		.long	0x14a
 1288 0076 665F 4C6F 		.string	"f_LockUnLock"
GAS LISTING C:\users\mohammadreza\Temp/ccazr1lT.s 			page 24


 1288      636B 556E 
 1288      4C6F 636B 
 1288      00
 1289 0083 5E01 0000 		.long	0x15e
 1290 0087 665F 4C6F 		.string	"f_LockIdle"
 1290      636B 4964 
 1290      6C65 00
 1291 0092 6E01 0000 		.long	0x16e
 1292 0096 665F 4C6F 		.string	"f_LockLock"
 1292      636B 4C6F 
 1292      636B 00
 1293 00a1 8201 0000 		.long	0x182
 1294 00a5 665F 4C6F 		.string	"f_LockFSM"
 1294      636B 4653 
 1294      4D00 
 1295 00af C401 0000 		.long	0x1c4
 1296 00b3 665F 4170 		.string	"f_Applic"
 1296      706C 6963 
 1296      00
 1297 00bc D801 0000 		.long	0x1d8
 1298 00c0 665F 496E 		.string	"f_Init_Applic"
 1298      6974 5F41 
 1298      7070 6C69 
 1298      6300 
 1299 00ce EC01 0000 		.long	0x1ec
 1300 00d2 6D79 5F41 		.string	"my_Applic2"
 1300      7070 6C69 
 1300      6332 00
 1301 00dd 1002 0000 		.long	0x210
 1302 00e1 6D79 5F41 		.string	"my_Applic"
 1302      7070 6C69 
 1302      6300 
 1303 00eb 4402 0000 		.long	0x244
 1304 00ef 7374 6174 		.string	"state_Lock"
 1304      655F 4C6F 
 1304      636B 00
 1305 00fa 5B02 0000 		.long	0x25b
 1306 00fe 765F 5365 		.string	"v_ServoLock"
 1306      7276 6F4C 
 1306      6F63 6B00 
 1307 010a 7202 0000 		.long	0x272
 1308 010e 765F 5365 		.string	"v_ServoUnLock"
 1308      7276 6F55 
 1308      6E4C 6F63 
 1308      6B00 
 1309 011c 8402 0000 		.long	0x284
 1310 0120 6170 705F 		.string	"app_subscription"
 1310      7375 6273 
 1310      6372 6970 
 1310      7469 6F6E 
 1310      00
 1311 0131 AE02 0000 		.long	0x2ae
 1312 0135 665F 4170 		.string	"f_Applic_function"
 1312      706C 6963 
 1312      5F66 756E 
 1312      6374 696F 
 1312      6E00 
GAS LISTING C:\users\mohammadreza\Temp/ccazr1lT.s 			page 25


 1313 0147 C002 0000 		.long	0x2c0
 1314 014b 6300      		.string	"c"
 1315 014d D002 0000 		.long	0x2d0
 1316 0151 7374 6172 		.string	"start2"
 1316      7432 00
 1317 0158 E202 0000 		.long	0x2e2
 1318 015c 656E 6432 		.string	"end2"
 1318      00
 1319 0161 F402 0000 		.long	0x2f4
 1320 0165 6932 00   		.string	"i2"
 1321 0168 0000 0000 		.long	0x0
 1322               		.section	.debug_aranges,"",@progbits
 1323 0000 1C00 0000 		.long	0x1c
 1324 0004 0200      		.word	0x2
 1325 0006 0000 0000 		.long	.Ldebug_info0
 1326 000a 04        		.byte	0x4
 1327 000b 00        		.byte	0x0
 1328 000c 0000      		.word	0x0
 1329 000e 0000      		.word	0x0
 1330 0010 0000 0000 		.long	.Ltext0
 1331 0014 B401 0000 		.long	.Letext0-.Ltext0
 1332 0018 0000 0000 		.long	0x0
 1333 001c 0000 0000 		.long	0x0
 1334               		.section	.debug_line
 1335 0000 B702 0000 		.long	.LELT0-.LSLT0
 1336               	.LSLT0:
 1337 0004 0200      		.word	0x2
 1338 0006 8600 0000 		.long	.LELTP0-.LASLTP0
 1339               	.LASLTP0:
 1340 000a 01        		.byte	0x1
 1341 000b 01        		.byte	0x1
 1342 000c F6        		.byte	0xf6
 1343 000d F5        		.byte	0xf5
 1344 000e 0A        		.byte	0xa
 1345 000f 00        		.byte	0x0
 1346 0010 01        		.byte	0x1
 1347 0011 01        		.byte	0x1
 1348 0012 01        		.byte	0x1
 1349 0013 01        		.byte	0x1
 1350 0014 00        		.byte	0x0
 1351 0015 00        		.byte	0x0
 1352 0016 00        		.byte	0x0
 1353 0017 01        		.byte	0x1
 1354 0018 7372 632F 		.ascii	"src/applic"
 1354      6170 706C 
 1354      6963 
 1355 0022 00        		.byte	0
 1356 0023 7372 632F 		.ascii	"src/applic/../includes"
 1356      6170 706C 
 1356      6963 2F2E 
 1356      2E2F 696E 
 1356      636C 7564 
 1357 0039 00        		.byte	0
 1358 003a 7372 632F 		.ascii	"src/applic/../periphint"
 1358      6170 706C 
 1358      6963 2F2E 
 1358      2E2F 7065 
GAS LISTING C:\users\mohammadreza\Temp/ccazr1lT.s 			page 26


 1358      7269 7068 
 1359 0051 00        		.byte	0
 1360 0052 00        		.byte	0x0
 1361 0053 6170 706C 		.string	"applic.c"
 1361      6963 2E63 
 1361      00
 1362 005c 01        		.uleb128 0x1
 1363 005d 00        		.uleb128 0x0
 1364 005e 00        		.uleb128 0x0
 1365 005f 2E2E 2F69 		.string	"../includes/types.h"
 1365      6E63 6C75 
 1365      6465 732F 
 1365      7479 7065 
 1365      732E 6800 
 1366 0073 01        		.uleb128 0x1
 1367 0074 00        		.uleb128 0x0
 1368 0075 00        		.uleb128 0x0
 1369 0076 2E2E 2F70 		.string	"../periphint/Timer0.h"
 1369      6572 6970 
 1369      6869 6E74 
 1369      2F54 696D 
 1369      6572 302E 
 1370 008c 01        		.uleb128 0x1
 1371 008d 00        		.uleb128 0x0
 1372 008e 00        		.uleb128 0x0
 1373 008f 00        		.byte	0x0
 1374               	.LELTP0:
 1375 0090 00        		.byte	0x0
 1376 0091 05        		.uleb128 0x5
 1377 0092 02        		.byte	0x2
 1378 0093 0000 0000 		.long	.LM1
 1379 0097 6B        		.byte	0x6b
 1380 0098 00        		.byte	0x0
 1381 0099 05        		.uleb128 0x5
 1382 009a 02        		.byte	0x2
 1383 009b 0000 0000 		.long	.LM2
 1384 009f 15        		.byte	0x15
 1385 00a0 00        		.byte	0x0
 1386 00a1 05        		.uleb128 0x5
 1387 00a2 02        		.byte	0x2
 1388 00a3 0000 0000 		.long	.LM3
 1389 00a7 15        		.byte	0x15
 1390 00a8 00        		.byte	0x0
 1391 00a9 05        		.uleb128 0x5
 1392 00aa 02        		.byte	0x2
 1393 00ab 0000 0000 		.long	.LM4
 1394 00af 31        		.byte	0x31
 1395 00b0 00        		.byte	0x0
 1396 00b1 05        		.uleb128 0x5
 1397 00b2 02        		.byte	0x2
 1398 00b3 0000 0000 		.long	.LM5
 1399 00b7 16        		.byte	0x16
 1400 00b8 00        		.byte	0x0
 1401 00b9 05        		.uleb128 0x5
 1402 00ba 02        		.byte	0x2
 1403 00bb 0000 0000 		.long	.LM6
 1404 00bf 16        		.byte	0x16
GAS LISTING C:\users\mohammadreza\Temp/ccazr1lT.s 			page 27


 1405 00c0 00        		.byte	0x0
 1406 00c1 05        		.uleb128 0x5
 1407 00c2 02        		.byte	0x2
 1408 00c3 0000 0000 		.long	.LM7
 1409 00c7 16        		.byte	0x16
 1410 00c8 00        		.byte	0x0
 1411 00c9 05        		.uleb128 0x5
 1412 00ca 02        		.byte	0x2
 1413 00cb 0000 0000 		.long	.LM8
 1414 00cf 16        		.byte	0x16
 1415 00d0 00        		.byte	0x0
 1416 00d1 05        		.uleb128 0x5
 1417 00d2 02        		.byte	0x2
 1418 00d3 0000 0000 		.long	.LM9
 1419 00d7 16        		.byte	0x16
 1420 00d8 00        		.byte	0x0
 1421 00d9 05        		.uleb128 0x5
 1422 00da 02        		.byte	0x2
 1423 00db 0000 0000 		.long	.LM10
 1424 00df 16        		.byte	0x16
 1425 00e0 00        		.byte	0x0
 1426 00e1 05        		.uleb128 0x5
 1427 00e2 02        		.byte	0x2
 1428 00e3 0000 0000 		.long	.LM11
 1429 00e7 16        		.byte	0x16
 1430 00e8 00        		.byte	0x0
 1431 00e9 05        		.uleb128 0x5
 1432 00ea 02        		.byte	0x2
 1433 00eb 0000 0000 		.long	.LM12
 1434 00ef 16        		.byte	0x16
 1435 00f0 00        		.byte	0x0
 1436 00f1 05        		.uleb128 0x5
 1437 00f2 02        		.byte	0x2
 1438 00f3 0000 0000 		.long	.LM13
 1439 00f7 15        		.byte	0x15
 1440 00f8 00        		.byte	0x0
 1441 00f9 05        		.uleb128 0x5
 1442 00fa 02        		.byte	0x2
 1443 00fb 0000 0000 		.long	.LM14
 1444 00ff 3E        		.byte	0x3e
 1445 0100 00        		.byte	0x0
 1446 0101 05        		.uleb128 0x5
 1447 0102 02        		.byte	0x2
 1448 0103 0000 0000 		.long	.LM15
 1449 0107 15        		.byte	0x15
 1450 0108 00        		.byte	0x0
 1451 0109 05        		.uleb128 0x5
 1452 010a 02        		.byte	0x2
 1453 010b 0000 0000 		.long	.LM16
 1454 010f 15        		.byte	0x15
 1455 0110 00        		.byte	0x0
 1456 0111 05        		.uleb128 0x5
 1457 0112 02        		.byte	0x2
 1458 0113 0000 0000 		.long	.LM17
 1459 0117 16        		.byte	0x16
 1460 0118 00        		.byte	0x0
 1461 0119 05        		.uleb128 0x5
GAS LISTING C:\users\mohammadreza\Temp/ccazr1lT.s 			page 28


 1462 011a 02        		.byte	0x2
 1463 011b 0000 0000 		.long	.LM18
 1464 011f 15        		.byte	0x15
 1465 0120 00        		.byte	0x0
 1466 0121 05        		.uleb128 0x5
 1467 0122 02        		.byte	0x2
 1468 0123 0000 0000 		.long	.LM19
 1469 0127 03        		.byte	0x3
 1470 0128 71        		.sleb128 -15
 1471 0129 01        		.byte	0x1
 1472 012a 00        		.byte	0x0
 1473 012b 05        		.uleb128 0x5
 1474 012c 02        		.byte	0x2
 1475 012d 0000 0000 		.long	.LM20
 1476 0131 1B        		.byte	0x1b
 1477 0132 00        		.byte	0x0
 1478 0133 05        		.uleb128 0x5
 1479 0134 02        		.byte	0x2
 1480 0135 0000 0000 		.long	.LM21
 1481 0139 15        		.byte	0x15
 1482 013a 00        		.byte	0x0
 1483 013b 05        		.uleb128 0x5
 1484 013c 02        		.byte	0x2
 1485 013d 0000 0000 		.long	.LM22
 1486 0141 03        		.byte	0x3
 1487 0142 71        		.sleb128 -15
 1488 0143 01        		.byte	0x1
 1489 0144 00        		.byte	0x0
 1490 0145 05        		.uleb128 0x5
 1491 0146 02        		.byte	0x2
 1492 0147 0000 0000 		.long	.LM23
 1493 014b 15        		.byte	0x15
 1494 014c 00        		.byte	0x0
 1495 014d 05        		.uleb128 0x5
 1496 014e 02        		.byte	0x2
 1497 014f 0000 0000 		.long	.LM24
 1498 0153 15        		.byte	0x15
 1499 0154 00        		.byte	0x0
 1500 0155 05        		.uleb128 0x5
 1501 0156 02        		.byte	0x2
 1502 0157 0000 0000 		.long	.LM25
 1503 015b 16        		.byte	0x16
 1504 015c 00        		.byte	0x0
 1505 015d 05        		.uleb128 0x5
 1506 015e 02        		.byte	0x2
 1507 015f 0000 0000 		.long	.LM26
 1508 0163 15        		.byte	0x15
 1509 0164 00        		.byte	0x0
 1510 0165 05        		.uleb128 0x5
 1511 0166 02        		.byte	0x2
 1512 0167 0000 0000 		.long	.LM27
 1513 016b 28        		.byte	0x28
 1514 016c 00        		.byte	0x0
 1515 016d 05        		.uleb128 0x5
 1516 016e 02        		.byte	0x2
 1517 016f 0000 0000 		.long	.LM28
 1518 0173 17        		.byte	0x17
GAS LISTING C:\users\mohammadreza\Temp/ccazr1lT.s 			page 29


 1519 0174 00        		.byte	0x0
 1520 0175 05        		.uleb128 0x5
 1521 0176 02        		.byte	0x2
 1522 0177 0000 0000 		.long	.LM29
 1523 017b 41        		.byte	0x41
 1524 017c 00        		.byte	0x0
 1525 017d 05        		.uleb128 0x5
 1526 017e 02        		.byte	0x2
 1527 017f 0000 0000 		.long	.LM30
 1528 0183 03        		.byte	0x3
 1529 0184 56        		.sleb128 -42
 1530 0185 01        		.byte	0x1
 1531 0186 00        		.byte	0x0
 1532 0187 05        		.uleb128 0x5
 1533 0188 02        		.byte	0x2
 1534 0189 0000 0000 		.long	.LM31
 1535 018d 15        		.byte	0x15
 1536 018e 00        		.byte	0x0
 1537 018f 05        		.uleb128 0x5
 1538 0190 02        		.byte	0x2
 1539 0191 0000 0000 		.long	.LM32
 1540 0195 16        		.byte	0x16
 1541 0196 00        		.byte	0x0
 1542 0197 05        		.uleb128 0x5
 1543 0198 02        		.byte	0x2
 1544 0199 0000 0000 		.long	.LM33
 1545 019d 16        		.byte	0x16
 1546 019e 00        		.byte	0x0
 1547 019f 05        		.uleb128 0x5
 1548 01a0 02        		.byte	0x2
 1549 01a1 0000 0000 		.long	.LM34
 1550 01a5 16        		.byte	0x16
 1551 01a6 00        		.byte	0x0
 1552 01a7 05        		.uleb128 0x5
 1553 01a8 02        		.byte	0x2
 1554 01a9 0000 0000 		.long	.LM35
 1555 01ad 2E        		.byte	0x2e
 1556 01ae 00        		.byte	0x0
 1557 01af 05        		.uleb128 0x5
 1558 01b0 02        		.byte	0x2
 1559 01b1 0000 0000 		.long	.LM36
 1560 01b5 16        		.byte	0x16
 1561 01b6 00        		.byte	0x0
 1562 01b7 05        		.uleb128 0x5
 1563 01b8 02        		.byte	0x2
 1564 01b9 0000 0000 		.long	.LM37
 1565 01bd 03        		.byte	0x3
 1566 01be 4C        		.sleb128 -52
 1567 01bf 01        		.byte	0x1
 1568 01c0 00        		.byte	0x0
 1569 01c1 05        		.uleb128 0x5
 1570 01c2 02        		.byte	0x2
 1571 01c3 0000 0000 		.long	.LM38
 1572 01c7 31        		.byte	0x31
 1573 01c8 00        		.byte	0x0
 1574 01c9 05        		.uleb128 0x5
 1575 01ca 02        		.byte	0x2
GAS LISTING C:\users\mohammadreza\Temp/ccazr1lT.s 			page 30


 1576 01cb 0000 0000 		.long	.LM39
 1577 01cf 15        		.byte	0x15
 1578 01d0 00        		.byte	0x0
 1579 01d1 05        		.uleb128 0x5
 1580 01d2 02        		.byte	0x2
 1581 01d3 0000 0000 		.long	.LM40
 1582 01d7 03        		.byte	0x3
 1583 01d8 62        		.sleb128 -30
 1584 01d9 01        		.byte	0x1
 1585 01da 00        		.byte	0x0
 1586 01db 05        		.uleb128 0x5
 1587 01dc 02        		.byte	0x2
 1588 01dd 0000 0000 		.long	.LM41
 1589 01e1 3A        		.byte	0x3a
 1590 01e2 00        		.byte	0x0
 1591 01e3 05        		.uleb128 0x5
 1592 01e4 02        		.byte	0x2
 1593 01e5 0000 0000 		.long	.LM42
 1594 01e9 15        		.byte	0x15
 1595 01ea 00        		.byte	0x0
 1596 01eb 05        		.uleb128 0x5
 1597 01ec 02        		.byte	0x2
 1598 01ed 0000 0000 		.long	.LM43
 1599 01f1 16        		.byte	0x16
 1600 01f2 00        		.byte	0x0
 1601 01f3 05        		.uleb128 0x5
 1602 01f4 02        		.byte	0x2
 1603 01f5 0000 0000 		.long	.LM44
 1604 01f9 16        		.byte	0x16
 1605 01fa 00        		.byte	0x0
 1606 01fb 05        		.uleb128 0x5
 1607 01fc 02        		.byte	0x2
 1608 01fd 0000 0000 		.long	.LM45
 1609 0201 16        		.byte	0x16
 1610 0202 00        		.byte	0x0
 1611 0203 05        		.uleb128 0x5
 1612 0204 02        		.byte	0x2
 1613 0205 0000 0000 		.long	.LM46
 1614 0209 03        		.byte	0x3
 1615 020a 827F      		.sleb128 -126
 1616 020c 01        		.byte	0x1
 1617 020d 00        		.byte	0x0
 1618 020e 05        		.uleb128 0x5
 1619 020f 02        		.byte	0x2
 1620 0210 0000 0000 		.long	.LM47
 1621 0214 16        		.byte	0x16
 1622 0215 00        		.byte	0x0
 1623 0216 05        		.uleb128 0x5
 1624 0217 02        		.byte	0x2
 1625 0218 0000 0000 		.long	.LM48
 1626 021c 15        		.byte	0x15
 1627 021d 00        		.byte	0x0
 1628 021e 05        		.uleb128 0x5
 1629 021f 02        		.byte	0x2
 1630 0220 0000 0000 		.long	.LM49
 1631 0224 3F        		.byte	0x3f
 1632 0225 00        		.byte	0x0
GAS LISTING C:\users\mohammadreza\Temp/ccazr1lT.s 			page 31


 1633 0226 05        		.uleb128 0x5
 1634 0227 02        		.byte	0x2
 1635 0228 0000 0000 		.long	.LM50
 1636 022c 16        		.byte	0x16
 1637 022d 00        		.byte	0x0
 1638 022e 05        		.uleb128 0x5
 1639 022f 02        		.byte	0x2
 1640 0230 0000 0000 		.long	.LM51
 1641 0234 16        		.byte	0x16
 1642 0235 00        		.byte	0x0
 1643 0236 05        		.uleb128 0x5
 1644 0237 02        		.byte	0x2
 1645 0238 0000 0000 		.long	.LM52
 1646 023c 17        		.byte	0x17
 1647 023d 00        		.byte	0x0
 1648 023e 05        		.uleb128 0x5
 1649 023f 02        		.byte	0x2
 1650 0240 0000 0000 		.long	.LM53
 1651 0244 17        		.byte	0x17
 1652 0245 00        		.byte	0x0
 1653 0246 05        		.uleb128 0x5
 1654 0247 02        		.byte	0x2
 1655 0248 0000 0000 		.long	.LM54
 1656 024c 15        		.byte	0x15
 1657 024d 00        		.byte	0x0
 1658 024e 05        		.uleb128 0x5
 1659 024f 02        		.byte	0x2
 1660 0250 0000 0000 		.long	.LM55
 1661 0254 16        		.byte	0x16
 1662 0255 00        		.byte	0x0
 1663 0256 05        		.uleb128 0x5
 1664 0257 02        		.byte	0x2
 1665 0258 0000 0000 		.long	.LM56
 1666 025c 03        		.byte	0x3
 1667 025d 53        		.sleb128 -45
 1668 025e 01        		.byte	0x1
 1669 025f 00        		.byte	0x0
 1670 0260 05        		.uleb128 0x5
 1671 0261 02        		.byte	0x2
 1672 0262 0000 0000 		.long	.LM57
 1673 0266 15        		.byte	0x15
 1674 0267 00        		.byte	0x0
 1675 0268 05        		.uleb128 0x5
 1676 0269 02        		.byte	0x2
 1677 026a 0000 0000 		.long	.LM58
 1678 026e 17        		.byte	0x17
 1679 026f 00        		.byte	0x0
 1680 0270 05        		.uleb128 0x5
 1681 0271 02        		.byte	0x2
 1682 0272 0000 0000 		.long	.LM59
 1683 0276 15        		.byte	0x15
 1684 0277 00        		.byte	0x0
 1685 0278 05        		.uleb128 0x5
 1686 0279 02        		.byte	0x2
 1687 027a 0000 0000 		.long	.LM60
 1688 027e 15        		.byte	0x15
 1689 027f 00        		.byte	0x0
GAS LISTING C:\users\mohammadreza\Temp/ccazr1lT.s 			page 32


 1690 0280 05        		.uleb128 0x5
 1691 0281 02        		.byte	0x2
 1692 0282 0000 0000 		.long	.LM61
 1693 0286 15        		.byte	0x15
 1694 0287 00        		.byte	0x0
 1695 0288 05        		.uleb128 0x5
 1696 0289 02        		.byte	0x2
 1697 028a 0000 0000 		.long	.LM62
 1698 028e 03        		.byte	0x3
 1699 028f 71        		.sleb128 -15
 1700 0290 01        		.byte	0x1
 1701 0291 00        		.byte	0x0
 1702 0292 05        		.uleb128 0x5
 1703 0293 02        		.byte	0x2
 1704 0294 0000 0000 		.long	.LM63
 1705 0298 15        		.byte	0x15
 1706 0299 00        		.byte	0x0
 1707 029a 05        		.uleb128 0x5
 1708 029b 02        		.byte	0x2
 1709 029c 0000 0000 		.long	.LM64
 1710 02a0 15        		.byte	0x15
 1711 02a1 00        		.byte	0x0
 1712 02a2 05        		.uleb128 0x5
 1713 02a3 02        		.byte	0x2
 1714 02a4 0000 0000 		.long	.LM65
 1715 02a8 15        		.byte	0x15
 1716 02a9 00        		.byte	0x0
 1717 02aa 05        		.uleb128 0x5
 1718 02ab 02        		.byte	0x2
 1719 02ac 0000 0000 		.long	.LM66
 1720 02b0 15        		.byte	0x15
 1721 02b1 00        		.byte	0x0
 1722 02b2 05        		.uleb128 0x5
 1723 02b3 02        		.byte	0x2
 1724 02b4 0000 0000 		.long	.Letext0
 1725 02b8 00        		.byte	0x0
 1726 02b9 01        		.uleb128 0x1
 1727 02ba 01        		.byte	0x1
 1728               	.LELT0:
 1729 02bb 1600 0000 		.section	.debug_str,"MS",@progbits,1
 1729      0200 1000 
 1729      0000 0101 
 1729      FB0E 0A00 
 1729      0101 0101 
 1730               	.LASF16:
 1731 0000 7479 7065 		.string	"type_Lock_state"
 1731      5F4C 6F63 
 1731      6B5F 7374 
 1731      6174 6500 
 1732               	.LASF12:
 1733 0010 7374 6174 		.string	"state_IDLE"
 1733      655F 4944 
 1733      4C45 00
 1734               	.LASF25:
 1735 001b 665F 4C6F 		.string	"f_LockFSM"
 1735      636B 4653 
 1735      4D00 
GAS LISTING C:\users\mohammadreza\Temp/ccazr1lT.s 			page 33


 1736               	.LASF35:
 1737 0025 765F 5365 		.string	"v_ServoUnLock"
 1737      7276 6F55 
 1737      6E4C 6F63 
 1737      6B00 
 1738               	.LASF15:
 1739 0033 7374 6174 		.string	"state_WaitTO2UnLock"
 1739      655F 5761 
 1739      6974 544F 
 1739      3255 6E4C 
 1739      6F63 6B00 
 1740               	.LASF39:
 1741 0047 656E 6432 		.string	"end2"
 1741      00
 1742               	.LASF11:
 1743 004c 494E 5431 		.string	"INT16U"
 1743      3655 00
 1744               	.LASF1:
 1745 0053 756E 7369 		.string	"unsigned char"
 1745      676E 6564 
 1745      2063 6861 
 1745      7200 
 1746               	.LASF37:
 1747 0061 665F 4170 		.string	"f_Applic_function"
 1747      706C 6963 
 1747      5F66 756E 
 1747      6374 696F 
 1747      6E00 
 1748               	.LASF42:
 1749 0073 5A3A 5C68 		.string	"Z:\\home\\mohammadreza\\temo\\Simple-AVR-OS-plus-some-improvement-"
 1749      6F6D 655C 
 1749      6D6F 6861 
 1749      6D6D 6164 
 1749      7265 7A61 
 1750               	.LASF4:
 1751 00b2 6C6F 6E67 		.string	"long unsigned int"
 1751      2075 6E73 
 1751      6967 6E65 
 1751      6420 696E 
 1751      7400 
 1752               	.LASF8:
 1753 00c4 7368 6F72 		.string	"short unsigned int"
 1753      7420 756E 
 1753      7369 676E 
 1753      6564 2069 
 1753      6E74 00
 1754               	.LASF40:
 1755 00d7 474E 5520 		.string	"GNU C 4.3.3"
 1755      4320 342E 
 1755      332E 3300 
 1756               	.LASF30:
 1757 00e3 765F 6461 		.string	"v_data"
 1757      7461 00
 1758               	.LASF22:
 1759 00ea 665F 4C6F 		.string	"f_LockUnLock"
 1759      636B 556E 
 1759      4C6F 636B 
GAS LISTING C:\users\mohammadreza\Temp/ccazr1lT.s 			page 34


 1759      00
 1760               	.LASF38:
 1761 00f7 7374 6172 		.string	"start2"
 1761      7432 00
 1762               	.LASF17:
 1763 00fe 6D79 5F41 		.string	"my_Applic3"
 1763      7070 6C69 
 1763      6333 00
 1764               	.LASF27:
 1765 0109 665F 496E 		.string	"f_Init_Applic"
 1765      6974 5F41 
 1765      7070 6C69 
 1765      6300 
 1766               	.LASF32:
 1767 0117 765F 5377 		.string	"v_SwTimer_mS"
 1767      5469 6D65 
 1767      725F 6D53 
 1767      00
 1768               	.LASF13:
 1769 0124 7374 6174 		.string	"state_WaitTO2Lock"
 1769      655F 5761 
 1769      6974 544F 
 1769      324C 6F63 
 1769      6B00 
 1770               	.LASF2:
 1771 0136 756E 7369 		.string	"unsigned int"
 1771      676E 6564 
 1771      2069 6E74 
 1771      00
 1772               	.LASF10:
 1773 0143 494E 5438 		.string	"INT8U"
 1773      5500 
 1774               	.LASF6:
 1775 0149 6C6F 6E67 		.string	"long long unsigned int"
 1775      206C 6F6E 
 1775      6720 756E 
 1775      7369 676E 
 1775      6564 2069 
 1776               	.LASF33:
 1777 0160 7374 6174 		.string	"state_Lock"
 1777      655F 4C6F 
 1777      636B 00
 1778               	.LASF23:
 1779 016b 665F 4C6F 		.string	"f_LockLock"
 1779      636B 4C6F 
 1779      636B 00
 1780               	.LASF20:
 1781 0176 6D79 5F41 		.string	"my_Applic6"
 1781      7070 6C69 
 1781      6336 00
 1782               	.LASF41:
 1783 0181 7372 632F 		.string	"src/applic/applic.c"
 1783      6170 706C 
 1783      6963 2F61 
 1783      7070 6C69 
 1783      632E 6300 
 1784               	.LASF28:
GAS LISTING C:\users\mohammadreza\Temp/ccazr1lT.s 			page 35


 1785 0195 6D79 5F41 		.string	"my_Applic2"
 1785      7070 6C69 
 1785      6332 00
 1786               	.LASF5:
 1787 01a0 6C6F 6E67 		.string	"long long int"
 1787      206C 6F6E 
 1787      6720 696E 
 1787      7400 
 1788               	.LASF18:
 1789 01ae 6D79 5F41 		.string	"my_Applic4"
 1789      7070 6C69 
 1789      6334 00
 1790               	.LASF19:
 1791 01b9 6D79 5F41 		.string	"my_Applic5"
 1791      7070 6C69 
 1791      6335 00
 1792               	.LASF7:
 1793 01c4 6368 6172 		.string	"char"
 1793      00
 1794               	.LASF21:
 1795 01c9 6D79 5F41 		.string	"my_Applic7"
 1795      7070 6C69 
 1795      6337 00
 1796               	.LASF36:
 1797 01d4 6170 705F 		.string	"app_subscription"
 1797      7375 6273 
 1797      6372 6970 
 1797      7469 6F6E 
 1797      00
 1798               	.LASF14:
 1799 01e5 7374 6174 		.string	"state_ARM"
 1799      655F 4152 
 1799      4D00 
 1800               	.LASF9:
 1801 01ef 7368 6F72 		.string	"short int"
 1801      7420 696E 
 1801      7400 
 1802               	.LASF24:
 1803 01f9 6170 706C 		.string	"applications_reducer"
 1803      6963 6174 
 1803      696F 6E73 
 1803      5F72 6564 
 1803      7563 6572 
 1804               	.LASF31:
 1805 020e 6D79 5F41 		.string	"my_Applic"
 1805      7070 6C69 
 1805      6300 
 1806               	.LASF34:
 1807 0218 765F 5365 		.string	"v_ServoLock"
 1807      7276 6F4C 
 1807      6F63 6B00 
 1808               	.LASF3:
 1809 0224 6C6F 6E67 		.string	"long int"
 1809      2069 6E74 
 1809      00
 1810               	.LASF43:
 1811 022d 665F 4C6F 		.string	"f_LockIdle"
GAS LISTING C:\users\mohammadreza\Temp/ccazr1lT.s 			page 36


 1811      636B 4964 
 1811      6C65 00
 1812               	.LASF0:
 1813 0238 7369 676E 		.string	"signed char"
 1813      6564 2063 
 1813      6861 7200 
 1814               	.LASF29:
 1815 0244 765F 7374 		.string	"v_status"
 1815      6174 7573 
 1815      00
 1816               	.LASF26:
 1817 024d 665F 4170 		.string	"f_Applic"
 1817      706C 6963 
 1817      00
 1818               	.global __do_copy_data
 1819               	.global __do_clear_bss
GAS LISTING C:\users\mohammadreza\Temp/ccazr1lT.s 			page 37


DEFINED SYMBOLS
                            *ABS*:00000000 applic.c
C:\users\mohammadreza\Temp/ccazr1lT.s:2      *ABS*:0000003f __SREG__
C:\users\mohammadreza\Temp/ccazr1lT.s:3      *ABS*:0000003e __SP_H__
C:\users\mohammadreza\Temp/ccazr1lT.s:4      *ABS*:0000003d __SP_L__
C:\users\mohammadreza\Temp/ccazr1lT.s:5      *ABS*:00000034 __CCP__
C:\users\mohammadreza\Temp/ccazr1lT.s:6      *ABS*:00000000 __tmp_reg__
C:\users\mohammadreza\Temp/ccazr1lT.s:7      *ABS*:00000001 __zero_reg__
C:\users\mohammadreza\Temp/ccazr1lT.s:18     .text:00000000 applications_reducer
                            *COM*:00000001 app_subscription
C:\users\mohammadreza\Temp/ccazr1lT.s:402    .data:00000034 f_Applic_function
C:\users\mohammadreza\Temp/ccazr1lT.s:53     .text:0000002c my_Applic3
C:\users\mohammadreza\Temp/ccazr1lT.s:65     .text:0000002e my_Applic4
C:\users\mohammadreza\Temp/ccazr1lT.s:77     .text:00000030 my_Applic5
C:\users\mohammadreza\Temp/ccazr1lT.s:89     .text:00000032 my_Applic6
C:\users\mohammadreza\Temp/ccazr1lT.s:101    .text:00000034 my_Applic7
C:\users\mohammadreza\Temp/ccazr1lT.s:117    .text:00000036 f_LockUnLock
                            *COM*:00000001 v_ServoUnLock
C:\users\mohammadreza\Temp/ccazr1lT.s:144    .text:00000050 f_LockIdle
C:\users\mohammadreza\Temp/ccazr1lT.s:164    .text:0000005a f_LockLock
                            *COM*:00000001 v_ServoLock
C:\users\mohammadreza\Temp/ccazr1lT.s:187    .text:00000074 f_LockFSM
                            *COM*:00000002 state_Lock
C:\users\mohammadreza\Temp/ccazr1lT.s:291    .text:00000128 f_Applic
C:\users\mohammadreza\Temp/ccazr1lT.s:305    .text:0000012e f_Init_Applic
C:\users\mohammadreza\Temp/ccazr1lT.s:337    .text:00000150 my_Applic2
C:\users\mohammadreza\Temp/ccazr1lT.s:434    .bss:00000001 i2
C:\users\mohammadreza\Temp/ccazr1lT.s:422    .data:00000044 start2
C:\users\mohammadreza\Temp/ccazr1lT.s:427    .data:00000046 end2
C:\users\mohammadreza\Temp/ccazr1lT.s:378    .text:0000019c my_Applic
C:\users\mohammadreza\Temp/ccazr1lT.s:416    .bss:00000000 c

UNDEFINED SYMBOLS
f_PWM1Enable
f_PWM1Set
f_Uart_PutStr
f_SCard_CheckCardIn
v_SwTimer_mS
f_InitPWM1
f_debug_port
f_Delay_ms
__do_copy_data
__do_clear_bss
